
Snake_game.elf:     file format elf32-littleriscv
Snake_game.elf
architecture: riscv:rv32, flags 0x00000112:
EXEC_P, HAS_SYMS, D_PAGED
start address 0x000000a0

Program Header:
    LOAD off    0x00001000 vaddr 0x00000000 paddr 0x00000000 align 2**12
         filesz 0x000033b8 memsz 0x000033b8 flags r-x
    LOAD off    0x00005000 vaddr 0x20000000 paddr 0x000033b8 align 2**12
         filesz 0x00000170 memsz 0x000002e8 flags rw-
    LOAD off    0x00005700 vaddr 0x20000700 paddr 0x20000700 align 2**12
         filesz 0x00000000 memsz 0x00000100 flags rw-

Sections:
Idx Name          Size      VMA       LMA       File off  Algn
  0 .init         00000140  00000000  00000000  00001000  2**2
                  CONTENTS, ALLOC, LOAD, READONLY, CODE
  1 .text         00003278  00000140  00000140  00001140  2**2
                  CONTENTS, ALLOC, LOAD, READONLY, CODE
  2 .fini         00000000  000033b8  000033b8  00005170  2**0
                  CONTENTS, ALLOC, LOAD, CODE
  3 .dalign       00000000  20000000  20000000  00005170  2**0
                  CONTENTS
  4 .dlalign      00000000  000033b8  000033b8  00005170  2**0
                  CONTENTS
  5 .data         00000170  20000000  000033b8  00005000  2**2
                  CONTENTS, ALLOC, LOAD, DATA
  6 .bss          00000178  20000170  00003528  00005170  2**2
                  ALLOC
  7 .stack        00000100  20000700  20000700  00005700  2**0
                  ALLOC
  8 .debug_info   00006cfa  00000000  00000000  00005170  2**0
                  CONTENTS, READONLY, DEBUGGING
  9 .debug_abbrev 00000dbb  00000000  00000000  0000be6a  2**0
                  CONTENTS, READONLY, DEBUGGING
 10 .debug_loc    00004252  00000000  00000000  0000cc25  2**0
                  CONTENTS, READONLY, DEBUGGING
 11 .debug_aranges 000003b0  00000000  00000000  00010e78  2**3
                  CONTENTS, READONLY, DEBUGGING
 12 .debug_ranges 00000a18  00000000  00000000  00011228  2**3
                  CONTENTS, READONLY, DEBUGGING
 13 .debug_line   00006a36  00000000  00000000  00011c40  2**0
                  CONTENTS, READONLY, DEBUGGING
 14 .debug_str    00001691  00000000  00000000  00018676  2**0
                  CONTENTS, READONLY, DEBUGGING
 15 .comment      00000033  00000000  00000000  00019d07  2**0
                  CONTENTS, READONLY
 16 .debug_frame  00000d10  00000000  00000000  00019d3c  2**2
                  CONTENTS, READONLY, DEBUGGING
SYMBOL TABLE:
00000000 l    d  .init	00000000 .init
00000140 l    d  .text	00000000 .text
000033b8 l    d  .fini	00000000 .fini
20000000 l    d  .dalign	00000000 .dalign
000033b8 l    d  .dlalign	00000000 .dlalign
20000000 l    d  .data	00000000 .data
20000170 l    d  .bss	00000000 .bss
20000700 l    d  .stack	00000000 .stack
00000000 l    d  .debug_info	00000000 .debug_info
00000000 l    d  .debug_abbrev	00000000 .debug_abbrev
00000000 l    d  .debug_loc	00000000 .debug_loc
00000000 l    d  .debug_aranges	00000000 .debug_aranges
00000000 l    d  .debug_ranges	00000000 .debug_ranges
00000000 l    d  .debug_line	00000000 .debug_line
00000000 l    d  .debug_str	00000000 .debug_str
00000000 l    d  .comment	00000000 .comment
00000000 l    d  .debug_frame	00000000 .debug_frame
00000000 l    df *ABS*	00000000 ch32v003fun.c
000001ea l     F .text	00000084 mini_pad
0000026e l     F .text	0000003e _puts
000002ac l     F .text	000000ba mini_itoa.part.0
00000674 l     F .text	00000012 __puts_uart
00000000 l    df *ABS*	00000000 main.c
00000718 l     F .text	0000001c i2c_chk_evt
00000734 l     F .text	000000a0 GPIO_ADCinit
000007d4 l     F .text	0000003a GPIO_analogRead
000009d0 l     F .text	0000004a save_name.part.8
00000c4c l     F .text	00000028 clear
00000c74 l     F .text	00000056 font_draw
00000cca l     F .text	00000032 Letter_draw.constprop.11
00000000 l    df *ABS*	00000000 libgcc2.c
00000000 l    df *ABS*	00000000 malloc.c
00000000 l    df *ABS*	00000000 nano-mallocr.c
00000000 l    df *ABS*	00000000 sbrkr.c
00000000 l    df *ABS*	00000000 mlock.c
00000000 l    df *ABS*	00000000 sbrk.c
20000178 l     O .bss	00000004 heap_end.1518
00000000 l    df *ABS*	00000000 libgcc2.c
00000000 l    df *ABS*	00000000 impure.c
20000104 l     O .data	00000060 impure_data
00000d12 g     F .text	00000054 multiple_ADC_reads
000029d0 g     O .text	00000040 D
00002c50 g     O .text	00000040 N
000003fe g     F .text	00000010 strcpy
000013a8 g     F .text	0000007e display_full_message
000005c8 g     F .text	0000002a printf
20000968 g       .data	00000000 __global_pointer$
000003dc  w    F .text	00000002 TIM1_CC_IRQHandler
000018f4 g     F .text	0000017e reveal_all_scores
000003dc  w    F .text	00000002 HardFault_Handler
000028ee g     F .text	00000002 __malloc_unlock
000003dc  w    F .text	00000002 SysTick_Handler
000003dc  w    F .text	00000002 PVD_IRQHandler
20000180 g     O .bss	00000001 Identifier
000003de  w    F .text	0000000e NMI_Handler
00003010 g     O .text	0000000f font_8
000008ba g     F .text	00000116 i2c_write
200002d4 g     O .bss	00000002 rnval
000005f2 g     F .text	0000005a SetupUART
00003030 g     O .text	0000000f font_D
2000017c g     O .bss	00000004 errno
00000000 g     F .init	0000009c InterruptVectorDefault
200002e2 g     O .bss	00000001 snakeHead
20000170 g       .bss	00000000 _sbss
00000100 g       *ABS*	00000000 __stack_size
00001c24 g     F .text	00000044 is_storage_initialized
0000148a g     F .text	000000ce save_currentScore_EEPROM
0000014a g     F .text	0000000a .hidden __riscv_restore_2
00002f90 g     O .text	0000000f font_0
00003000 g     O .text	0000000f font_7
0000186a g     F .text	0000008a load_scores
00002910 g     O .text	00000040 A
00002b90 g     O .text	00000040 K
00000000  w    F .init	0000009c InterruptVector
00001d0c g     F .text	00000178 scroll_text
000017ea g     F .text	0000005e available_names
2000020e g     O .bss	00000002 i2c_err_flags
00000686 g     F .text	0000002a puts
20000188 g     O .bss	00000003 current_name
000027e2 g     F .text	0000000e malloc
2000006c g     O .data	00000030 font_list
00000174 g     F .text	0000002c .hidden __udivsi3
00002d10 g     O .text	00000040 Q
00000140 g       .init	00000000 _einit
200002d8 g     O .bss	0000000a scoreHistory
000003dc  w    F .text	00000002 SPI1_IRQHandler
000028c4 g     F .text	00000028 _sbrk_r
00000140 g     F .text	0000000a .hidden __riscv_save_1
200000f8 g     O .data	00000003 snakeHeadColor
0000014a g     F .text	0000000a .hidden __riscv_restore_0
000003dc  w    F .text	00000002 AWU_IRQHandler
000003dc  w    F .text	00000002 EXTI7_0_IRQHandler
00000f5a g     F .text	000000d6 WS2812BSimpleSend
00002f10 g     O .text	00000040 Y
000015c8 g     F .text	00000014 save_name
000010a8 g     F .text	000000be display
00002fc0 g     O .text	0000000f font_3
000022f0 g     F .text	000004f2 .hidden __udivdi3
000003dc  w    F .text	00000002 DMA1_Channel4_IRQHandler
000003dc  w    F .text	00000002 ADC1_IRQHandler
000028f0 g     F .text	00000020 _sbrk
00002dd0 g     O .text	00000040 T
00002d90 g     O .text	00000040 S
200002e8 g       .bss	00000000 _ebss
000003dc  w    F .text	00000002 DMA1_Channel7_IRQHandler
00002950 g     O .text	00000040 B
00001360 g     F .text	00000048 display_letter
00001030 g     F .text	00000028 generate_apple
200002d6 g     O .bss	00000001 score
00002b50 g     O .text	00000040 J
00003050 g     O .text	000000fc font_chars
00001594 g     F .text	00000034 load_id
2000020c g     O .bss	00000001 gameOver
000001a0 g     F .text	00000008 .hidden __umodsi3
00000cfc g     F .text	0000000c ADC_read_pad
00003020 g     O .text	0000000f font_9
200002e8 g       .bss	00000000 end
000006b0 g     F .text	00000016 DelaySysTick
000003dc  w    F .text	00000002 I2C1_EV_IRQHandler
00001848 g     F .text	00000022 get_current_user_name
00002990 g     O .text	00000040 C
00002e50 g     O .text	00000040 V
000003dc  w    F .text	00000002 DMA1_Channel6_IRQHandler
200000fc g     O .data	00000003 snakeTailColor
000003dc  w    F .text	00000002 RCC_IRQHandler
000003dc  w    F .text	00000002 TIM1_TRG_COM_IRQHandler
00000eb6 g     F .text	000000a4 JOY_sound
000003dc  w    F .text	00000002 DMA1_Channel1_IRQHandler
000000a0 g       .init	00000000 _start
00001cd2 g     F .text	00000016 reset_all_scores
20000187 g     O .bss	00000001 currentScoreIndex
00000154 g     F .text	00000014 .hidden __mulsi3
0000040e g     F .text	00000016 strncpy
00002a90 g     O .text	00000040 G
00002ff0 g     O .text	0000000f font_6
000011dc g     F .text	00000068 check_collision
00003040 g     O .text	0000000f font_X
00000d66 g     F .text	0000012e JOY_check_button
000003dc g     F .text	00000002 DefaultIRQHandler
20000000 g       .dalign	00000000 _data_vma
00002c90 g     O .text	00000040 O
000003de g     F .text	0000000e NMI_RCC_CSS_IRQHandler
200002d0 g     O .bss	00000004 new_name
00002e90 g     O .text	00000040 W
00001166 g     F .text	00000076 get_new_direction
200000f0 g     O .data	00000003 scoreColor
000028ec g     F .text	00000002 __malloc_lock
00002fd0 g     O .text	0000000f font_4
00000424 g     F .text	000001a4 mini_vpprintf
000015dc g     F .text	000001bc create_name
00001e84 g     F .text	0000046c main
2000009c g     O .data	00000001 ledDivider
00000a1a g     F .text	0000017e i2c_read
00001798 g     F .text	00000052 load_name
00002ad0 g     O .text	00000040 H
000027f0 g     F .text	000000d4 _malloc_r
200002e4 g     O .bss	00000002 speedCounter
00001244 g     F .text	000000ac move_snake
000003dc  w    F .text	00000002 DMA1_Channel5_IRQHandler
0000016c g     F .text	00000058 .hidden __divsi3
2000018c g     O .bss	00000080 gameBoard
00001558 g     F .text	0000003c save_id
00002bd0 g     O .text	00000040 L
20000000 g     O .data	00000068 Letter_List
00000e94 g     F .text	00000022 JOY_random
000006c6 g     F .text	00000052 SystemInit
000032b8 g     O .text	00000100 .hidden __clz_tab
00000000 g       .init	00000000 _sinit
00002d50 g     O .text	00000040 R
2000018b g     O .bss	00000001 current_user_id
000003dc  w    F .text	00000002 DMA1_Channel3_IRQHandler
00000b98 g     F .text	000000b4 set_color
00001058 g     F .text	00000050 game_init
20000168 g     O .data	00000004 _impure_ptr
000003dc  w    F .text	00000002 TIM1_UP_IRQHandler
00002f50 g     O .text	00000040 Z
00001a72 g     F .text	000001b2 show_name_and_highest_score
0000085a g     F .text	00000060 i2c_init
000003dc  w    F .text	00000002 WWDG_IRQHandler
20000068 g     O .data	00000003 appleColor
000003dc  w    F .text	00000002 TIM2_IRQHandler
20000800 g       .stack	00000000 _eusrstack
200000a0 g     O .data	0000004e letters_color
00000140 g     F .text	0000000a .hidden __riscv_save_2
000003dc  w    F .text	00000002 SW_Handler
00002a10 g     O .text	00000040 E
00002b10 g     O .text	00000040 I
2000020d g     O .bss	00000001 game_regime
00002fa0 g     O .text	0000000f font_1
000003dc  w    F .text	00000002 TIM1_BRK_IRQHandler
00002c10 g     O .text	00000040 M
0000064c g     F .text	00000028 _write
20000170 g       .data	00000000 _edata
200002e3 g     O .bss	00000001 snakeTail
20000184 g     O .bss	00000003 blankColor
20000100 g     O .data	00000003 speedBoostColor
00002e10 g     O .text	00000040 U
000033b8 g       .dlalign	00000000 _data_lma
000001c4 g     F .text	00000024 .hidden __modsi3
000003dc  w    F .text	00000002 DMA1_Channel2_IRQHandler
00001c68 g     F .text	0000006a reset_storage
00001ce8 g     F .text	00000024 init_storage
200000f4 g     O .data	00000003 snakeBodyColor
00000366 g     F .text	00000076 handle_reset
000003dc  w    F .text	00000002 FLASH_IRQHandler
00000140 g     F .text	0000000a .hidden __riscv_save_0
00000d08 g     F .text	0000000a ADC_read_smallboard
000003dc  w    F .text	00000002 USART1_IRQHandler
000003ec g     F .text	00000012 strlen
20000174 g     O .bss	00000004 __malloc_sbrk_start
000003dc  w    F .text	00000002 I2C1_ER_IRQHandler
0000080e g     F .text	0000004c i2c_setup
20000170 g     O .bss	00000004 __malloc_free_list
0000014a g     F .text	0000000a .hidden __riscv_restore_1
00002fe0 g     O .text	0000000f font_5
20000210 g     O .bss	000000c0 led_array
00002a50 g     O .text	00000040 F
00002cd0 g     O .text	00000040 P
00001426 g     F .text	00000064 choose_your_name
00002fb0 g     O .text	0000000f font_2
00002ed0 g     O .text	00000040 X
000012f0 g     F .text	00000070 show_current_score



Disassembly of section .init:

00000000 <InterruptVectorDefault>:
   0:	3660006f          	j	366 <handle_reset>
   4:	0000                	unimp
   6:	0000                	unimp
   8:	03de                	slli	t2,t2,0x17
   a:	0000                	unimp
   c:	03dc                	addi	a5,sp,452
	...
  2e:	0000                	unimp
  30:	03dc                	addi	a5,sp,452
  32:	0000                	unimp
  34:	0000                	unimp
  36:	0000                	unimp
  38:	03dc                	addi	a5,sp,452
  3a:	0000                	unimp
  3c:	0000                	unimp
  3e:	0000                	unimp
  40:	03dc                	addi	a5,sp,452
  42:	0000                	unimp
  44:	03dc                	addi	a5,sp,452
  46:	0000                	unimp
  48:	03dc                	addi	a5,sp,452
  4a:	0000                	unimp
  4c:	03dc                	addi	a5,sp,452
  4e:	0000                	unimp
  50:	03dc                	addi	a5,sp,452
  52:	0000                	unimp
  54:	03dc                	addi	a5,sp,452
  56:	0000                	unimp
  58:	03dc                	addi	a5,sp,452
  5a:	0000                	unimp
  5c:	03dc                	addi	a5,sp,452
  5e:	0000                	unimp
  60:	03dc                	addi	a5,sp,452
  62:	0000                	unimp
  64:	03dc                	addi	a5,sp,452
  66:	0000                	unimp
  68:	03dc                	addi	a5,sp,452
  6a:	0000                	unimp
  6c:	03dc                	addi	a5,sp,452
  6e:	0000                	unimp
  70:	03dc                	addi	a5,sp,452
  72:	0000                	unimp
  74:	03dc                	addi	a5,sp,452
  76:	0000                	unimp
  78:	03dc                	addi	a5,sp,452
  7a:	0000                	unimp
  7c:	03dc                	addi	a5,sp,452
  7e:	0000                	unimp
  80:	03dc                	addi	a5,sp,452
  82:	0000                	unimp
  84:	03dc                	addi	a5,sp,452
  86:	0000                	unimp
  88:	03dc                	addi	a5,sp,452
  8a:	0000                	unimp
  8c:	03dc                	addi	a5,sp,452
  8e:	0000                	unimp
  90:	03dc                	addi	a5,sp,452
  92:	0000                	unimp
  94:	03dc                	addi	a5,sp,452
  96:	0000                	unimp
  98:	03dc                	addi	a5,sp,452
  9a:	0000                	unimp
  9c:	0000                	unimp
	...

000000a0 <_start>:
  a0:	2c60006f          	j	366 <handle_reset>
  a4:	0000                	unimp
  a6:	0000                	unimp
  a8:	03de                	slli	t2,t2,0x17
  aa:	0000                	unimp
  ac:	03dc                	addi	a5,sp,452
	...
  ce:	0000                	unimp
  d0:	03dc                	addi	a5,sp,452
  d2:	0000                	unimp
  d4:	0000                	unimp
  d6:	0000                	unimp
  d8:	03dc                	addi	a5,sp,452
  da:	0000                	unimp
  dc:	0000                	unimp
  de:	0000                	unimp
  e0:	03dc                	addi	a5,sp,452
  e2:	0000                	unimp
  e4:	03dc                	addi	a5,sp,452
  e6:	0000                	unimp
  e8:	03dc                	addi	a5,sp,452
  ea:	0000                	unimp
  ec:	03dc                	addi	a5,sp,452
  ee:	0000                	unimp
  f0:	03dc                	addi	a5,sp,452
  f2:	0000                	unimp
  f4:	03dc                	addi	a5,sp,452
  f6:	0000                	unimp
  f8:	03dc                	addi	a5,sp,452
  fa:	0000                	unimp
  fc:	03dc                	addi	a5,sp,452
  fe:	0000                	unimp
 100:	03dc                	addi	a5,sp,452
 102:	0000                	unimp
 104:	03dc                	addi	a5,sp,452
 106:	0000                	unimp
 108:	03dc                	addi	a5,sp,452
 10a:	0000                	unimp
 10c:	03dc                	addi	a5,sp,452
 10e:	0000                	unimp
 110:	03dc                	addi	a5,sp,452
 112:	0000                	unimp
 114:	03dc                	addi	a5,sp,452
 116:	0000                	unimp
 118:	03dc                	addi	a5,sp,452
 11a:	0000                	unimp
 11c:	03dc                	addi	a5,sp,452
 11e:	0000                	unimp
 120:	03dc                	addi	a5,sp,452
 122:	0000                	unimp
 124:	03dc                	addi	a5,sp,452
 126:	0000                	unimp
 128:	03dc                	addi	a5,sp,452
 12a:	0000                	unimp
 12c:	03dc                	addi	a5,sp,452
 12e:	0000                	unimp
 130:	03dc                	addi	a5,sp,452
 132:	0000                	unimp
 134:	03dc                	addi	a5,sp,452
 136:	0000                	unimp
 138:	03dc                	addi	a5,sp,452
 13a:	0000                	unimp
 13c:	0000                	unimp
	...

Disassembly of section .text:

00000140 <__riscv_save_0>:
     140:	1151                	addi	sp,sp,-12
     142:	c026                	sw	s1,0(sp)
     144:	c222                	sw	s0,4(sp)
     146:	c406                	sw	ra,8(sp)
     148:	8282                	jr	t0

0000014a <__riscv_restore_0>:
     14a:	4482                	lw	s1,0(sp)
     14c:	4412                	lw	s0,4(sp)
     14e:	40a2                	lw	ra,8(sp)
     150:	0131                	addi	sp,sp,12
     152:	8082                	ret

00000154 <__mulsi3>:
     154:	862a                	mv	a2,a0
     156:	4501                	li	a0,0
     158:	0015f693          	andi	a3,a1,1
     15c:	c291                	beqz	a3,160 <__mulsi3+0xc>
     15e:	9532                	add	a0,a0,a2
     160:	8185                	srli	a1,a1,0x1
     162:	0606                	slli	a2,a2,0x1
     164:	f9f5                	bnez	a1,158 <__mulsi3+0x4>
     166:	8082                	ret
     168:	0000                	unimp
	...

0000016c <__divsi3>:
     16c:	02054e63          	bltz	a0,1a8 <__umodsi3+0x8>
     170:	0405c363          	bltz	a1,1b6 <__umodsi3+0x16>

00000174 <__udivsi3>:
     174:	862e                	mv	a2,a1
     176:	85aa                	mv	a1,a0
     178:	557d                	li	a0,-1
     17a:	c215                	beqz	a2,19e <__udivsi3+0x2a>
     17c:	4685                	li	a3,1
     17e:	00b67863          	bgeu	a2,a1,18e <__udivsi3+0x1a>
     182:	00c05663          	blez	a2,18e <__udivsi3+0x1a>
     186:	0606                	slli	a2,a2,0x1
     188:	0686                	slli	a3,a3,0x1
     18a:	feb66ce3          	bltu	a2,a1,182 <__udivsi3+0xe>
     18e:	4501                	li	a0,0
     190:	00c5e463          	bltu	a1,a2,198 <__udivsi3+0x24>
     194:	8d91                	sub	a1,a1,a2
     196:	8d55                	or	a0,a0,a3
     198:	8285                	srli	a3,a3,0x1
     19a:	8205                	srli	a2,a2,0x1
     19c:	faf5                	bnez	a3,190 <__udivsi3+0x1c>
     19e:	8082                	ret

000001a0 <__umodsi3>:
     1a0:	8286                	mv	t0,ra
     1a2:	3fc9                	jal	174 <__udivsi3>
     1a4:	852e                	mv	a0,a1
     1a6:	8282                	jr	t0
     1a8:	40a00533          	neg	a0,a0
     1ac:	0005d763          	bgez	a1,1ba <__umodsi3+0x1a>
     1b0:	40b005b3          	neg	a1,a1
     1b4:	b7c1                	j	174 <__udivsi3>
     1b6:	40b005b3          	neg	a1,a1
     1ba:	8286                	mv	t0,ra
     1bc:	3f65                	jal	174 <__udivsi3>
     1be:	40a00533          	neg	a0,a0
     1c2:	8282                	jr	t0

000001c4 <__modsi3>:
     1c4:	8286                	mv	t0,ra
     1c6:	0005c763          	bltz	a1,1d4 <__modsi3+0x10>
     1ca:	00054963          	bltz	a0,1dc <__modsi3+0x18>
     1ce:	375d                	jal	174 <__udivsi3>
     1d0:	852e                	mv	a0,a1
     1d2:	8282                	jr	t0
     1d4:	40b005b3          	neg	a1,a1
     1d8:	fe055be3          	bgez	a0,1ce <__modsi3+0xa>
     1dc:	40a00533          	neg	a0,a0
     1e0:	3f51                	jal	174 <__udivsi3>
     1e2:	40b00533          	neg	a0,a1
     1e6:	8282                	jr	t0
	...

000001ea <mini_pad>:
     1ea:	4301                	li	t1,0
     1ec:	c2ad                	beqz	a3,24e <mini_pad+0x64>
     1ee:	00b6d463          	bge	a3,a1,1f6 <mini_pad+0xc>
     1f2:	85b6                	mv	a1,a3
     1f4:	4305                	li	t1,1
     1f6:	8e8d                	sub	a3,a3,a1
     1f8:	87ba                	mv	a5,a4
     1fa:	00d703b3          	add	t2,a4,a3
     1fe:	40f382b3          	sub	t0,t2,a5
     202:	04504863          	bgtz	t0,252 <mini_pad+0x68>
     206:	0006d363          	bgez	a3,20c <mini_pad+0x22>
     20a:	4681                	li	a3,0
     20c:	96ba                	add	a3,a3,a4
     20e:	4781                	li	a5,0
     210:	40f58633          	sub	a2,a1,a5
     214:	04c04363          	bgtz	a2,25a <mini_pad+0x70>
     218:	0005d363          	bgez	a1,21e <mini_pad+0x34>
     21c:	4581                	li	a1,0
     21e:	95b6                	add	a1,a1,a3
     220:	40e58533          	sub	a0,a1,a4
     224:	02030463          	beqz	t1,24c <mini_pad+0x62>
     228:	02b77263          	bgeu	a4,a1,24c <mini_pad+0x62>
     22c:	02a00793          	li	a5,42
     230:	fef58fa3          	sb	a5,-1(a1)
     234:	fff58693          	addi	a3,a1,-1
     238:	00d77a63          	bgeu	a4,a3,24c <mini_pad+0x62>
     23c:	fef58f23          	sb	a5,-2(a1)
     240:	ffe58693          	addi	a3,a1,-2
     244:	00d77463          	bgeu	a4,a3,24c <mini_pad+0x62>
     248:	fef58ea3          	sb	a5,-3(a1)
     24c:	8082                	ret
     24e:	86ae                	mv	a3,a1
     250:	b75d                	j	1f6 <mini_pad+0xc>
     252:	0785                	addi	a5,a5,1
     254:	fec78fa3          	sb	a2,-1(a5)
     258:	b75d                	j	1fe <mini_pad+0x14>
     25a:	00f50633          	add	a2,a0,a5
     25e:	00060283          	lb	t0,0(a2)
     262:	00f68633          	add	a2,a3,a5
     266:	0785                	addi	a5,a5,1
     268:	00560023          	sb	t0,0(a2)
     26c:	b755                	j	210 <mini_pad+0x26>

0000026e <_puts>:
     26e:	ce01                	beqz	a2,286 <_puts+0x18>
     270:	00062283          	lw	t0,0(a2)
     274:	4701                	li	a4,0
     276:	425c                	lw	a5,4(a2)
     278:	00b74963          	blt	a4,a1,28a <_puts+0x1c>
     27c:	00078023          	sb	zero,0(a5)
     280:	424c                	lw	a1,4(a2)
     282:	405585b3          	sub	a1,a1,t0
     286:	852e                	mv	a0,a1
     288:	8082                	ret
     28a:	4614                	lw	a3,8(a2)
     28c:	fff68313          	addi	t1,a3,-1
     290:	4214                	lw	a3,0(a2)
     292:	969a                	add	a3,a3,t1
     294:	fed784e3          	beq	a5,a3,27c <_puts+0xe>
     298:	00178693          	addi	a3,a5,1
     29c:	c254                	sw	a3,4(a2)
     29e:	00e506b3          	add	a3,a0,a4
     2a2:	00068683          	lb	a3,0(a3)
     2a6:	0705                	addi	a4,a4,1
     2a8:	a394                	sb	a3,0(a5)
     2aa:	b7f1                	j	276 <_puts+0x8>

000002ac <mini_itoa.part.0>:
     2ac:	e95ff2ef          	jal	t0,140 <__riscv_save_0>
     2b0:	1131                	addi	sp,sp,-20
     2b2:	c002                	sw	zero,0(sp)
     2b4:	832a                	mv	t1,a0
     2b6:	82ae                	mv	t0,a1
     2b8:	00055763          	bgez	a0,2c6 <mini_itoa.part.0+0x1a>
     2bc:	e689                	bnez	a3,2c6 <mini_itoa.part.0+0x1a>
     2be:	4785                	li	a5,1
     2c0:	40a00333          	neg	t1,a0
     2c4:	c03e                	sw	a5,0(sp)
     2c6:	06100413          	li	s0,97
     2ca:	c219                	beqz	a2,2d0 <mini_itoa.part.0+0x24>
     2cc:	04100413          	li	s0,65
     2d0:	84ba                	mv	s1,a4
     2d2:	1459                	addi	s0,s0,-10
     2d4:	8596                	mv	a1,t0
     2d6:	851a                	mv	a0,t1
     2d8:	c83a                	sw	a4,16(sp)
     2da:	c21a                	sw	t1,4(sp)
     2dc:	c616                	sw	t0,12(sp)
     2de:	c41a                	sw	t1,8(sp)
     2e0:	35c1                	jal	1a0 <__umodsi3>
     2e2:	46a5                	li	a3,9
     2e4:	0ff57793          	andi	a5,a0,255
     2e8:	4322                	lw	t1,8(sp)
     2ea:	42b2                	lw	t0,12(sp)
     2ec:	4742                	lw	a4,16(sp)
     2ee:	04a6ee63          	bltu	a3,a0,34a <mini_itoa.part.0+0x9e>
     2f2:	03078793          	addi	a5,a5,48
     2f6:	01879693          	slli	a3,a5,0x18
     2fa:	86e1                	srai	a3,a3,0x18
     2fc:	00148793          	addi	a5,s1,1
     300:	a094                	sb	a3,0(s1)
     302:	8596                	mv	a1,t0
     304:	851a                	mv	a0,t1
     306:	c83a                	sw	a4,16(sp)
     308:	c63e                	sw	a5,12(sp)
     30a:	c416                	sw	t0,8(sp)
     30c:	35a5                	jal	174 <__udivsi3>
     30e:	4692                	lw	a3,4(sp)
     310:	42a2                	lw	t0,8(sp)
     312:	832a                	mv	t1,a0
     314:	47b2                	lw	a5,12(sp)
     316:	4742                	lw	a4,16(sp)
     318:	0256f763          	bgeu	a3,t0,346 <mini_itoa.part.0+0x9a>
     31c:	4682                	lw	a3,0(sp)
     31e:	c691                	beqz	a3,32a <mini_itoa.part.0+0x7e>
     320:	02d00693          	li	a3,45
     324:	a394                	sb	a3,0(a5)
     326:	00248793          	addi	a5,s1,2
     32a:	40e78533          	sub	a0,a5,a4
     32e:	01f55693          	srli	a3,a0,0x1f
     332:	96aa                	add	a3,a3,a0
     334:	00078023          	sb	zero,0(a5)
     338:	8685                	srai	a3,a3,0x1
     33a:	4601                	li	a2,0
     33c:	17fd                	addi	a5,a5,-1
     33e:	00d64863          	blt	a2,a3,34e <mini_itoa.part.0+0xa2>
     342:	0151                	addi	sp,sp,20
     344:	b519                	j	14a <__riscv_restore_0>
     346:	84be                	mv	s1,a5
     348:	b771                	j	2d4 <mini_itoa.part.0+0x28>
     34a:	97a2                	add	a5,a5,s0
     34c:	b76d                	j	2f6 <mini_itoa.part.0+0x4a>
     34e:	00c705b3          	add	a1,a4,a2
     352:	00078283          	lb	t0,0(a5)
     356:	00058303          	lb	t1,0(a1)
     35a:	0605                	addi	a2,a2,1
     35c:	00558023          	sb	t0,0(a1)
     360:	00678023          	sb	t1,0(a5)
     364:	bfe1                	j	33c <mini_itoa.part.0+0x90>

00000366 <handle_reset>:
     366:	20000197          	auipc	gp,0x20000
     36a:	60218193          	addi	gp,gp,1538 # 20000968 <__global_pointer$>
     36e:	e9818113          	addi	sp,gp,-360 # 20000800 <_eusrstack>
     372:	08000513          	li	a0,128
     376:	30051073          	csrw	mstatus,a0
     37a:	468d                	li	a3,3
     37c:	00000517          	auipc	a0,0x0
     380:	c8450513          	addi	a0,a0,-892 # 0 <InterruptVectorDefault>
     384:	8d55                	or	a0,a0,a3
     386:	30551073          	csrw	mtvec,a0
     38a:	80818513          	addi	a0,gp,-2040 # 20000170 <_edata>
     38e:	98018593          	addi	a1,gp,-1664 # 200002e8 <_ebss>
     392:	4601                	li	a2,0
     394:	00b55663          	bge	a0,a1,3a0 <handle_reset+0x3a>
     398:	c110                	sw	a2,0(a0)
     39a:	0511                	addi	a0,a0,4
     39c:	feb54ee3          	blt	a0,a1,398 <handle_reset+0x32>
     3a0:	00003517          	auipc	a0,0x3
     3a4:	01850513          	addi	a0,a0,24 # 33b8 <_data_lma>
     3a8:	20000597          	auipc	a1,0x20000
     3ac:	c5858593          	addi	a1,a1,-936 # 20000000 <_data_vma>
     3b0:	80818613          	addi	a2,gp,-2040 # 20000170 <_edata>
     3b4:	00c58863          	beq	a1,a2,3c4 <handle_reset+0x5e>
     3b8:	4114                	lw	a3,0(a0)
     3ba:	c194                	sw	a3,0(a1)
     3bc:	0511                	addi	a0,a0,4
     3be:	0591                	addi	a1,a1,4
     3c0:	fec59ae3          	bne	a1,a2,3b4 <handle_reset+0x4e>
     3c4:	e000f7b7          	lui	a5,0xe000f
     3c8:	4715                	li	a4,5
     3ca:	c398                	sw	a4,0(a5)
     3cc:	000027b7          	lui	a5,0x2
     3d0:	e8478793          	addi	a5,a5,-380 # 1e84 <main>
     3d4:	34179073          	csrw	mepc,a5
     3d8:	30200073          	mret

000003dc <DefaultIRQHandler>:
     3dc:	a001                	j	3dc <DefaultIRQHandler>

000003de <NMI_RCC_CSS_IRQHandler>:
     3de:	40021737          	lui	a4,0x40021
     3e2:	471c                	lw	a5,8(a4)
     3e4:	008006b7          	lui	a3,0x800
     3e8:	8fd5                	or	a5,a5,a3
     3ea:	c71c                	sw	a5,8(a4)

000003ec <strlen>:
     3ec:	87aa                	mv	a5,a0
     3ee:	00078703          	lb	a4,0(a5)
     3f2:	e701                	bnez	a4,3fa <strlen+0xe>
     3f4:	40a78533          	sub	a0,a5,a0
     3f8:	8082                	ret
     3fa:	0785                	addi	a5,a5,1
     3fc:	bfcd                	j	3ee <strlen+0x2>

000003fe <strcpy>:
     3fe:	00058783          	lb	a5,0(a1)
     402:	a11c                	sb	a5,0(a0)
     404:	e391                	bnez	a5,408 <strcpy+0xa>
     406:	8082                	ret
     408:	0585                	addi	a1,a1,1
     40a:	0505                	addi	a0,a0,1
     40c:	bfcd                	j	3fe <strcpy>

0000040e <strncpy>:
     40e:	962a                	add	a2,a2,a0
     410:	00c50663          	beq	a0,a2,41c <strncpy+0xe>
     414:	00058783          	lb	a5,0(a1)
     418:	a11c                	sb	a5,0(a0)
     41a:	e391                	bnez	a5,41e <strncpy+0x10>
     41c:	8082                	ret
     41e:	0585                	addi	a1,a1,1
     420:	0505                	addi	a0,a0,1
     422:	b7fd                	j	410 <strncpy+0x2>

00000424 <mini_vpprintf>:
     424:	d1dff2ef          	jal	t0,140 <__riscv_save_0>
     428:	715d                	addi	sp,sp,-80
     42a:	c02e                	sw	a1,0(sp)
     42c:	8432                	mv	s0,a2
     42e:	87b6                	mv	a5,a3
     430:	84aa                	mv	s1,a0
     432:	e511                	bnez	a0,43e <mini_vpprintf+0x1a>
     434:	00000737          	lui	a4,0x0
     438:	c002                	sw	zero,0(sp)
     43a:	26e70493          	addi	s1,a4,622 # 26e <_puts>
     43e:	c802                	sw	zero,16(sp)
     440:	00040703          	lb	a4,0(s0)
     444:	00140313          	addi	t1,s0,1
     448:	00e10fa3          	sb	a4,31(sp)
     44c:	c75d                	beqz	a4,4fa <mini_vpprintf+0xd6>
     44e:	c41a                	sw	t1,8(sp)
     450:	02500693          	li	a3,37
     454:	00d70f63          	beq	a4,a3,472 <mini_vpprintf+0x4e>
     458:	4602                	lw	a2,0(sp)
     45a:	4585                	li	a1,1
     45c:	01f10513          	addi	a0,sp,31
     460:	c23e                	sw	a5,4(sp)
     462:	9482                	jalr	s1
     464:	4322                	lw	t1,8(sp)
     466:	841a                	mv	s0,t1
     468:	47c2                	lw	a5,16(sp)
     46a:	97aa                	add	a5,a5,a0
     46c:	c83e                	sw	a5,16(sp)
     46e:	4792                	lw	a5,4(sp)
     470:	bfc1                	j	440 <mini_vpprintf+0x1c>
     472:	00140683          	lb	a3,1(s0)
     476:	03000593          	li	a1,48
     47a:	03000613          	li	a2,48
     47e:	00d10fa3          	sb	a3,31(sp)
     482:	c62e                	sw	a1,12(sp)
     484:	00240713          	addi	a4,s0,2
     488:	06c69c63          	bne	a3,a2,500 <mini_vpprintf+0xdc>
     48c:	843a                	mv	s0,a4
     48e:	4601                	li	a2,0
     490:	4701                	li	a4,0
     492:	4525                	li	a0,9
     494:	a811                	j	4a8 <mini_vpprintf+0x84>
     496:	00271693          	slli	a3,a4,0x2
     49a:	0405                	addi	s0,s0,1
     49c:	9736                	add	a4,a4,a3
     49e:	fff40683          	lb	a3,-1(s0)
     4a2:	0706                	slli	a4,a4,0x1
     4a4:	972e                	add	a4,a4,a1
     4a6:	4605                	li	a2,1
     4a8:	fd068593          	addi	a1,a3,-48 # 7fffd0 <_data_lma+0x7fcc18>
     4ac:	0ff5f313          	andi	t1,a1,255
     4b0:	fe6573e3          	bgeu	a0,t1,496 <mini_vpprintf+0x72>
     4b4:	c219                	beqz	a2,4ba <mini_vpprintf+0x96>
     4b6:	00d10fa3          	sb	a3,31(sp)
     4ba:	c43a                	sw	a4,8(sp)
     4bc:	4661                	li	a2,24
     4be:	00e65363          	bge	a2,a4,4c4 <mini_vpprintf+0xa0>
     4c2:	c432                	sw	a2,8(sp)
     4c4:	06c00613          	li	a2,108
     4c8:	4581                	li	a1,0
     4ca:	00c69763          	bne	a3,a2,4d8 <mini_vpprintf+0xb4>
     4ce:	2014                	lbu	a3,0(s0)
     4d0:	4585                	li	a1,1
     4d2:	0405                	addi	s0,s0,1
     4d4:	00d10fa3          	sb	a3,31(sp)
     4d8:	01f10683          	lb	a3,31(sp)
     4dc:	06400613          	li	a2,100
     4e0:	06c68163          	beq	a3,a2,542 <mini_vpprintf+0x11e>
     4e4:	02d64263          	blt	a2,a3,508 <mini_vpprintf+0xe4>
     4e8:	05800713          	li	a4,88
     4ec:	08e68d63          	beq	a3,a4,586 <mini_vpprintf+0x162>
     4f0:	06300713          	li	a4,99
     4f4:	0ae68463          	beq	a3,a4,59c <mini_vpprintf+0x178>
     4f8:	e2f1                	bnez	a3,5bc <mini_vpprintf+0x198>
     4fa:	4542                	lw	a0,16(sp)
     4fc:	6161                	addi	sp,sp,80
     4fe:	b1b1                	j	14a <__riscv_restore_0>
     500:	02000613          	li	a2,32
     504:	c632                	sw	a2,12(sp)
     506:	b759                	j	48c <mini_vpprintf+0x68>
     508:	07500613          	li	a2,117
     50c:	02c68b63          	beq	a3,a2,542 <mini_vpprintf+0x11e>
     510:	07800613          	li	a2,120
     514:	06c68963          	beq	a3,a2,586 <mini_vpprintf+0x162>
     518:	07300613          	li	a2,115
     51c:	0ac69063          	bne	a3,a2,5bc <mini_vpprintf+0x198>
     520:	cc3a                	sw	a4,24(sp)
     522:	00478713          	addi	a4,a5,4
     526:	439c                	lw	a5,0(a5)
     528:	c23a                	sw	a4,4(sp)
     52a:	853e                	mv	a0,a5
     52c:	ca3e                	sw	a5,20(sp)
     52e:	3d7d                	jal	3ec <strlen>
     530:	4762                	lw	a4,24(sp)
     532:	85aa                	mv	a1,a0
     534:	47d2                	lw	a5,20(sp)
     536:	c341                	beqz	a4,5b6 <mini_vpprintf+0x192>
     538:	1018                	addi	a4,sp,32
     53a:	46a2                	lw	a3,8(sp)
     53c:	4632                	lw	a2,12(sp)
     53e:	853e                	mv	a0,a5
     540:	a01d                	j	566 <mini_vpprintf+0x142>
     542:	00478713          	addi	a4,a5,4
     546:	c23a                	sw	a4,4(sp)
     548:	c58d                	beqz	a1,572 <mini_vpprintf+0x14e>
     54a:	f8b68693          	addi	a3,a3,-117
     54e:	1838                	addi	a4,sp,56
     550:	0016b693          	seqz	a3,a3
     554:	4601                	li	a2,0
     556:	45a9                	li	a1,10
     558:	4388                	lw	a0,0(a5)
     55a:	3b89                	jal	2ac <mini_itoa.part.0>
     55c:	46a2                	lw	a3,8(sp)
     55e:	4632                	lw	a2,12(sp)
     560:	85aa                	mv	a1,a0
     562:	1018                	addi	a4,sp,32
     564:	1828                	addi	a0,sp,56
     566:	3151                	jal	1ea <mini_pad>
     568:	4602                	lw	a2,0(sp)
     56a:	85aa                	mv	a1,a0
     56c:	1008                	addi	a0,sp,32
     56e:	9482                	jalr	s1
     570:	bde5                	j	468 <mini_vpprintf+0x44>
     572:	07500713          	li	a4,117
     576:	00e69563          	bne	a3,a4,580 <mini_vpprintf+0x15c>
     57a:	1838                	addi	a4,sp,56
     57c:	4685                	li	a3,1
     57e:	bfd9                	j	554 <mini_vpprintf+0x130>
     580:	1838                	addi	a4,sp,56
     582:	4681                	li	a3,0
     584:	bfc1                	j	554 <mini_vpprintf+0x130>
     586:	fa868693          	addi	a3,a3,-88
     58a:	00478713          	addi	a4,a5,4
     58e:	0016b613          	seqz	a2,a3
     592:	c23a                	sw	a4,4(sp)
     594:	4685                	li	a3,1
     596:	1838                	addi	a4,sp,56
     598:	45c1                	li	a1,16
     59a:	bf7d                	j	558 <mini_vpprintf+0x134>
     59c:	00478713          	addi	a4,a5,4
     5a0:	439c                	lw	a5,0(a5)
     5a2:	c23a                	sw	a4,4(sp)
     5a4:	46a2                	lw	a3,8(sp)
     5a6:	00f10fa3          	sb	a5,31(sp)
     5aa:	1018                	addi	a4,sp,32
     5ac:	4632                	lw	a2,12(sp)
     5ae:	4585                	li	a1,1
     5b0:	01f10513          	addi	a0,sp,31
     5b4:	bf4d                	j	566 <mini_vpprintf+0x142>
     5b6:	4602                	lw	a2,0(sp)
     5b8:	853e                	mv	a0,a5
     5ba:	bf55                	j	56e <mini_vpprintf+0x14a>
     5bc:	c23e                	sw	a5,4(sp)
     5be:	4602                	lw	a2,0(sp)
     5c0:	4585                	li	a1,1
     5c2:	01f10513          	addi	a0,sp,31
     5c6:	b765                	j	56e <mini_vpprintf+0x14a>

000005c8 <printf>:
     5c8:	fdc10113          	addi	sp,sp,-36
     5cc:	ca32                	sw	a2,20(sp)
     5ce:	862a                	mv	a2,a0
     5d0:	00000537          	lui	a0,0x0
     5d4:	c82e                	sw	a1,16(sp)
     5d6:	cc36                	sw	a3,24(sp)
     5d8:	4581                	li	a1,0
     5da:	0814                	addi	a3,sp,16
     5dc:	67450513          	addi	a0,a0,1652 # 674 <__puts_uart>
     5e0:	c606                	sw	ra,12(sp)
     5e2:	ce3a                	sw	a4,28(sp)
     5e4:	d03e                	sw	a5,32(sp)
     5e6:	c036                	sw	a3,0(sp)
     5e8:	3d35                	jal	424 <mini_vpprintf>
     5ea:	40b2                	lw	ra,12(sp)
     5ec:	02410113          	addi	sp,sp,36
     5f0:	8082                	ret

000005f2 <SetupUART>:
     5f2:	400216b7          	lui	a3,0x40021
     5f6:	4e9c                	lw	a5,24(a3)
     5f8:	6711                	lui	a4,0x4
     5fa:	02070713          	addi	a4,a4,32 # 4020 <_data_lma+0xc68>
     5fe:	8fd9                	or	a5,a5,a4
     600:	ce9c                	sw	a5,24(a3)
     602:	400117b7          	lui	a5,0x40011
     606:	4007a703          	lw	a4,1024(a5) # 40011400 <__global_pointer$+0x20010a98>
     60a:	ff1006b7          	lui	a3,0xff100
     60e:	16fd                	addi	a3,a3,-1
     610:	8f75                	and	a4,a4,a3
     612:	40e7a023          	sw	a4,1024(a5)
     616:	4007a703          	lw	a4,1024(a5)
     61a:	009006b7          	lui	a3,0x900
     61e:	0542                	slli	a0,a0,0x10
     620:	8f55                	or	a4,a4,a3
     622:	40e7a023          	sw	a4,1024(a5)
     626:	400147b7          	lui	a5,0x40014
     62a:	4721                	li	a4,8
     62c:	80e79623          	sh	a4,-2036(a5) # 4001380c <__global_pointer$+0x20012ea4>
     630:	80079823          	sh	zero,-2032(a5)
     634:	80079a23          	sh	zero,-2028(a5)
     638:	8141                	srli	a0,a0,0x10
     63a:	80a79423          	sh	a0,-2040(a5)
     63e:	80c7d703          	lhu	a4,-2036(a5)
     642:	6689                	lui	a3,0x2
     644:	8f55                	or	a4,a4,a3
     646:	80e79623          	sh	a4,-2036(a5)
     64a:	8082                	ret

0000064c <_write>:
     64c:	4781                	li	a5,0
     64e:	400146b7          	lui	a3,0x40014
     652:	00c7c463          	blt	a5,a2,65a <_write+0xe>
     656:	8532                	mv	a0,a2
     658:	8082                	ret
     65a:	8006d703          	lhu	a4,-2048(a3) # 40013800 <__global_pointer$+0x20012e98>
     65e:	04077713          	andi	a4,a4,64
     662:	df65                	beqz	a4,65a <_write+0xe>
     664:	00f58733          	add	a4,a1,a5
     668:	00070703          	lb	a4,0(a4)
     66c:	0785                	addi	a5,a5,1
     66e:	80e69223          	sh	a4,-2044(a3)
     672:	b7c5                	j	652 <_write+0x6>

00000674 <__puts_uart>:
     674:	acdff2ef          	jal	t0,140 <__riscv_save_0>
     678:	842e                	mv	s0,a1
     67a:	862e                	mv	a2,a1
     67c:	85aa                	mv	a1,a0
     67e:	4501                	li	a0,0
     680:	37f1                	jal	64c <_write>
     682:	8522                	mv	a0,s0
     684:	b4d9                	j	14a <__riscv_restore_0>

00000686 <puts>:
     686:	abbff2ef          	jal	t0,140 <__riscv_save_0>
     68a:	1171                	addi	sp,sp,-4
     68c:	c02a                	sw	a0,0(sp)
     68e:	3bb9                	jal	3ec <strlen>
     690:	4582                	lw	a1,0(sp)
     692:	842a                	mv	s0,a0
     694:	862a                	mv	a2,a0
     696:	4501                	li	a0,0
     698:	3f55                	jal	64c <_write>
     69a:	000035b7          	lui	a1,0x3
     69e:	4605                	li	a2,1
     6a0:	1c458593          	addi	a1,a1,452 # 31c4 <font_chars+0x174>
     6a4:	4501                	li	a0,0
     6a6:	375d                	jal	64c <_write>
     6a8:	00140513          	addi	a0,s0,1
     6ac:	0111                	addi	sp,sp,4
     6ae:	bc71                	j	14a <__riscv_restore_0>

000006b0 <DelaySysTick>:
     6b0:	e000f7b7          	lui	a5,0xe000f
     6b4:	479c                	lw	a5,8(a5)
     6b6:	e000f737          	lui	a4,0xe000f
     6ba:	953e                	add	a0,a0,a5
     6bc:	471c                	lw	a5,8(a4)
     6be:	8f89                	sub	a5,a5,a0
     6c0:	fe07cee3          	bltz	a5,6bc <DelaySysTick+0xc>
     6c4:	8082                	ret

000006c6 <SystemInit>:
     6c6:	a7bff2ef          	jal	t0,140 <__riscv_save_0>
     6ca:	400227b7          	lui	a5,0x40022
     6ce:	4705                	li	a4,1
     6d0:	c398                	sw	a4,0(a5)
     6d2:	400217b7          	lui	a5,0x40021
     6d6:	01080737          	lui	a4,0x1080
     6da:	0007a223          	sw	zero,4(a5) # 40021004 <__global_pointer$+0x2002069c>
     6de:	08170713          	addi	a4,a4,129 # 1080081 <_data_lma+0x107ccc9>
     6e2:	c398                	sw	a4,0(a5)
     6e4:	009f0737          	lui	a4,0x9f0
     6e8:	c798                	sw	a4,8(a5)
     6ea:	40021737          	lui	a4,0x40021
     6ee:	431c                	lw	a5,0(a4)
     6f0:	00679693          	slli	a3,a5,0x6
     6f4:	fe06dde3          	bgez	a3,6ee <SystemInit+0x28>
     6f8:	435c                	lw	a5,4(a4)
     6fa:	400216b7          	lui	a3,0x40021
     6fe:	9bf1                	andi	a5,a5,-4
     700:	0027e793          	ori	a5,a5,2
     704:	c35c                	sw	a5,4(a4)
     706:	4721                	li	a4,8
     708:	42dc                	lw	a5,4(a3)
     70a:	8bb1                	andi	a5,a5,12
     70c:	fee79ee3          	bne	a5,a4,708 <SystemInit+0x42>
     710:	1a100513          	li	a0,417
     714:	3df9                	jal	5f2 <SetupUART>
     716:	bc15                	j	14a <__riscv_restore_0>

00000718 <i2c_chk_evt>:
     718:	40005737          	lui	a4,0x40005
     71c:	41475683          	lhu	a3,1044(a4) # 40005414 <__global_pointer$+0x20004aac>
     720:	41875783          	lhu	a5,1048(a4)
     724:	07c2                	slli	a5,a5,0x10
     726:	8fd5                	or	a5,a5,a3
     728:	8fe9                	and	a5,a5,a0
     72a:	40a78533          	sub	a0,a5,a0
     72e:	00153513          	seqz	a0,a0
     732:	8082                	ret

00000734 <GPIO_ADCinit>:
     734:	400217b7          	lui	a5,0x40021
     738:	43d8                	lw	a4,4(a5)
     73a:	76c1                	lui	a3,0xffff0
     73c:	7ff68693          	addi	a3,a3,2047 # ffff07ff <__global_pointer$+0xdffefe97>
     740:	8f75                	and	a4,a4,a3
     742:	c3d8                	sw	a4,4(a5)
     744:	4f98                	lw	a4,24(a5)
     746:	400006b7          	lui	a3,0x40000
     74a:	16fd                	addi	a3,a3,-1
     74c:	20076713          	ori	a4,a4,512
     750:	cf98                	sw	a4,24(a5)
     752:	47d8                	lw	a4,12(a5)
     754:	20076713          	ori	a4,a4,512
     758:	c7d8                	sw	a4,12(a5)
     75a:	47d8                	lw	a4,12(a5)
     75c:	dff77713          	andi	a4,a4,-513
     760:	c7d8                	sw	a4,12(a5)
     762:	400127b7          	lui	a5,0x40012
     766:	40078793          	addi	a5,a5,1024 # 40012400 <__global_pointer$+0x20011a98>
     76a:	4b98                	lw	a4,16(a5)
     76c:	0007a823          	sw	zero,16(a5)
     770:	4b98                	lw	a4,16(a5)
     772:	8f55                	or	a4,a4,a3
     774:	cb98                	sw	a4,16(a5)
     776:	47d8                	lw	a4,12(a5)
     778:	0007a623          	sw	zero,12(a5)
     77c:	47d8                	lw	a4,12(a5)
     77e:	000406b7          	lui	a3,0x40
     782:	16fd                	addi	a3,a3,-1
     784:	8f55                	or	a4,a4,a3
     786:	c7d8                	sw	a4,12(a5)
     788:	4798                	lw	a4,8(a5)
     78a:	000e06b7          	lui	a3,0xe0
     78e:	8f55                	or	a4,a4,a3
     790:	c798                	sw	a4,8(a5)
     792:	0207a623          	sw	zero,44(a5)
     796:	0207a823          	sw	zero,48(a5)
     79a:	0207aa23          	sw	zero,52(a5)
     79e:	4798                	lw	a4,8(a5)
     7a0:	400126b7          	lui	a3,0x40012
     7a4:	00176713          	ori	a4,a4,1
     7a8:	c798                	sw	a4,8(a5)
     7aa:	4798                	lw	a4,8(a5)
     7ac:	00876713          	ori	a4,a4,8
     7b0:	c798                	sw	a4,8(a5)
     7b2:	4086a703          	lw	a4,1032(a3) # 40012408 <__global_pointer$+0x20011aa0>
     7b6:	8b21                	andi	a4,a4,8
     7b8:	ff6d                	bnez	a4,7b2 <GPIO_ADCinit+0x7e>
     7ba:	4086a703          	lw	a4,1032(a3)
     7be:	00476713          	ori	a4,a4,4
     7c2:	40e6a423          	sw	a4,1032(a3)
     7c6:	40012737          	lui	a4,0x40012
     7ca:	40872783          	lw	a5,1032(a4) # 40012408 <__global_pointer$+0x20011aa0>
     7ce:	8b91                	andi	a5,a5,4
     7d0:	ffed                	bnez	a5,7ca <GPIO_ADCinit+0x96>
     7d2:	8082                	ret

000007d4 <GPIO_analogRead>:
     7d4:	96dff2ef          	jal	t0,140 <__riscv_save_0>
     7d8:	40012437          	lui	s0,0x40012
     7dc:	42a42a23          	sw	a0,1076(s0) # 40012434 <__global_pointer$+0x20011acc>
     7e0:	6509                	lui	a0,0x2
     7e2:	58050513          	addi	a0,a0,1408 # 2580 <__udivdi3+0x290>
     7e6:	35e9                	jal	6b0 <DelaySysTick>
     7e8:	40842783          	lw	a5,1032(s0)
     7ec:	00400737          	lui	a4,0x400
     7f0:	40040413          	addi	s0,s0,1024
     7f4:	8fd9                	or	a5,a5,a4
     7f6:	c41c                	sw	a5,8(s0)
     7f8:	40012737          	lui	a4,0x40012
     7fc:	40072783          	lw	a5,1024(a4) # 40012400 <__global_pointer$+0x20011a98>
     800:	8b89                	andi	a5,a5,2
     802:	dfed                	beqz	a5,7fc <GPIO_analogRead+0x28>
     804:	44c72503          	lw	a0,1100(a4)
     808:	0542                	slli	a0,a0,0x10
     80a:	8141                	srli	a0,a0,0x10
     80c:	ba3d                	j	14a <__riscv_restore_0>

0000080e <i2c_setup>:
     80e:	8a019323          	sh	zero,-1882(gp) # 2000020e <i2c_err_flags>
     812:	400217b7          	lui	a5,0x40021
     816:	4b98                	lw	a4,16(a5)
     818:	002006b7          	lui	a3,0x200
     81c:	8f55                	or	a4,a4,a3
     81e:	cb98                	sw	a4,16(a5)
     820:	4b98                	lw	a4,16(a5)
     822:	ffe006b7          	lui	a3,0xffe00
     826:	16fd                	addi	a3,a3,-1
     828:	8f75                	and	a4,a4,a3
     82a:	cb98                	sw	a4,16(a5)
     82c:	40005737          	lui	a4,0x40005
     830:	40475783          	lhu	a5,1028(a4) # 40005404 <__global_pointer$+0x20004a9c>
     834:	07c2                	slli	a5,a5,0x10
     836:	83c1                	srli	a5,a5,0x10
     838:	fc07f793          	andi	a5,a5,-64
     83c:	0187e793          	ori	a5,a5,24
     840:	40f71223          	sh	a5,1028(a4)
     844:	0f000793          	li	a5,240
     848:	40f71e23          	sh	a5,1052(a4)
     84c:	40075783          	lhu	a5,1024(a4)
     850:	0017e793          	ori	a5,a5,1
     854:	40f71023          	sh	a5,1024(a4)
     858:	8082                	ret

0000085a <i2c_init>:
     85a:	8e7ff2ef          	jal	t0,140 <__riscv_save_0>
     85e:	400217b7          	lui	a5,0x40021
     862:	4f98                	lw	a4,24(a5)
     864:	002006b7          	lui	a3,0x200
     868:	01176713          	ori	a4,a4,17
     86c:	cf98                	sw	a4,24(a5)
     86e:	4fd8                	lw	a4,28(a5)
     870:	8f55                	or	a4,a4,a3
     872:	cfd8                	sw	a4,28(a5)
     874:	400117b7          	lui	a5,0x40011
     878:	4398                	lw	a4,0(a5)
     87a:	76fd                	lui	a3,0xfffff
     87c:	0ff68693          	addi	a3,a3,255 # fffff0ff <__global_pointer$+0xdfffe797>
     880:	f0f77713          	andi	a4,a4,-241
     884:	c398                	sw	a4,0(a5)
     886:	4398                	lw	a4,0(a5)
     888:	0d076713          	ori	a4,a4,208
     88c:	c398                	sw	a4,0(a5)
     88e:	4398                	lw	a4,0(a5)
     890:	8f75                	and	a4,a4,a3
     892:	c398                	sw	a4,0(a5)
     894:	4398                	lw	a4,0(a5)
     896:	6685                	lui	a3,0x1
     898:	d0068693          	addi	a3,a3,-768 # d00 <ADC_read_pad+0x4>
     89c:	8f55                	or	a4,a4,a3
     89e:	c398                	sw	a4,0(a5)
     8a0:	400107b7          	lui	a5,0x40010
     8a4:	43d8                	lw	a4,4(a5)
     8a6:	ffc006b7          	lui	a3,0xffc00
     8aa:	16f5                	addi	a3,a3,-3
     8ac:	8f75                	and	a4,a4,a3
     8ae:	c3d8                	sw	a4,4(a5)
     8b0:	43d8                	lw	a4,4(a5)
     8b2:	c3d8                	sw	a4,4(a5)
     8b4:	3fa9                	jal	80e <i2c_setup>
     8b6:	895ff06f          	j	14a <__riscv_restore_0>

000008ba <i2c_write>:
     8ba:	887ff2ef          	jal	t0,140 <__riscv_save_0>
     8be:	1141                	addi	sp,sp,-16
     8c0:	832a                	mv	t1,a0
     8c2:	842e                	mv	s0,a1
     8c4:	c03a                	sw	a4,0(sp)
     8c6:	8a019323          	sh	zero,-1882(gp) # 2000020e <i2c_err_flags>
     8ca:	7d000493          	li	s1,2000
     8ce:	400052b7          	lui	t0,0x40005
     8d2:	557d                	li	a0,-1
     8d4:	40028713          	addi	a4,t0,1024 # 40005400 <__global_pointer$+0x20004a98>
     8d8:	2f0e                	lhu	a1,24(a4)
     8da:	8989                	andi	a1,a1,2
     8dc:	c9d1                	beqz	a1,970 <i2c_write+0xb6>
     8de:	14fd                	addi	s1,s1,-1
     8e0:	fea49ae3          	bne	s1,a0,8d4 <i2c_write+0x1a>
     8e4:	4505                	li	a0,1
     8e6:	0141                	addi	sp,sp,16
     8e8:	863ff06f          	j	14a <__riscv_restore_0>
     8ec:	577d                	li	a4,-1
     8ee:	4509                	li	a0,2
     8f0:	fee48be3          	beq	s1,a4,8e6 <i2c_write+0x2c>
     8f4:	ce11                	beqz	a2,910 <i2c_write+0x56>
     8f6:	00845713          	srli	a4,s0,0x8
     8fa:	400057b7          	lui	a5,0x40005
     8fe:	40e79823          	sh	a4,1040(a5) # 40005410 <__global_pointer$+0x20004aa8>
     902:	40005737          	lui	a4,0x40005
     906:	41475783          	lhu	a5,1044(a4) # 40005414 <__global_pointer$+0x20004aac>
     90a:	0807f793          	andi	a5,a5,128
     90e:	dfe5                	beqz	a5,906 <i2c_write+0x4c>
     910:	0ff47413          	andi	s0,s0,255
     914:	400057b7          	lui	a5,0x40005
     918:	40879823          	sh	s0,1040(a5) # 40005410 <__global_pointer$+0x20004aa8>
     91c:	40005737          	lui	a4,0x40005
     920:	41475783          	lhu	a5,1044(a4) # 40005414 <__global_pointer$+0x20004aac>
     924:	0807f793          	andi	a5,a5,128
     928:	dfe5                	beqz	a5,920 <i2c_write+0x66>
     92a:	4782                	lw	a5,0(sp)
     92c:	40005737          	lui	a4,0x40005
     930:	00f684b3          	add	s1,a3,a5
     934:	02969363          	bne	a3,s1,95a <i2c_write+0xa0>
     938:	00070437          	lui	s0,0x70
     93c:	08440413          	addi	s0,s0,132 # 70084 <_data_lma+0x6cccc>
     940:	8522                	mv	a0,s0
     942:	3bd9                	jal	718 <i2c_chk_evt>
     944:	dd75                	beqz	a0,940 <i2c_write+0x86>
     946:	40005737          	lui	a4,0x40005
     94a:	40075783          	lhu	a5,1024(a4) # 40005400 <__global_pointer$+0x20004a98>
     94e:	4501                	li	a0,0
     950:	2007e793          	ori	a5,a5,512
     954:	40f71023          	sh	a5,1024(a4)
     958:	b779                	j	8e6 <i2c_write+0x2c>
     95a:	41475783          	lhu	a5,1044(a4)
     95e:	0807f793          	andi	a5,a5,128
     962:	dfe5                	beqz	a5,95a <i2c_write+0xa0>
     964:	0685                	addi	a3,a3,1
     966:	fff6c783          	lbu	a5,-1(a3) # ffbfffff <__global_pointer$+0xdfbff697>
     96a:	40f71823          	sh	a5,1040(a4)
     96e:	b7d9                	j	934 <i2c_write+0x7a>
     970:	230e                	lhu	a1,0(a4)
     972:	1005e593          	ori	a1,a1,256
     976:	a30e                	sh	a1,0(a4)
     978:	00030737          	lui	a4,0x30
     97c:	0705                	addi	a4,a4,1
     97e:	853a                	mv	a0,a4
     980:	c636                	sw	a3,12(sp)
     982:	c432                	sw	a2,8(sp)
     984:	c21a                	sw	t1,4(sp)
     986:	3b49                	jal	718 <i2c_chk_evt>
     988:	000307b7          	lui	a5,0x30
     98c:	00178713          	addi	a4,a5,1 # 30001 <_data_lma+0x2cc49>
     990:	4312                	lw	t1,4(sp)
     992:	4622                	lw	a2,8(sp)
     994:	46b2                	lw	a3,12(sp)
     996:	d565                	beqz	a0,97e <i2c_write+0xc4>
     998:	0306                	slli	t1,t1,0x1
     99a:	40005737          	lui	a4,0x40005
     99e:	0fe37313          	andi	t1,t1,254
     9a2:	40671823          	sh	t1,1040(a4) # 40005410 <__global_pointer$+0x20004aa8>
     9a6:	00070737          	lui	a4,0x70
     9aa:	08270713          	addi	a4,a4,130 # 70082 <_data_lma+0x6ccca>
     9ae:	853a                	mv	a0,a4
     9b0:	c436                	sw	a3,8(sp)
     9b2:	c232                	sw	a2,4(sp)
     9b4:	3395                	jal	718 <i2c_chk_evt>
     9b6:	4612                	lw	a2,4(sp)
     9b8:	46a2                	lw	a3,8(sp)
     9ba:	f90d                	bnez	a0,8ec <i2c_write+0x32>
     9bc:	000707b7          	lui	a5,0x70
     9c0:	14fd                	addi	s1,s1,-1
     9c2:	55fd                	li	a1,-1
     9c4:	08278713          	addi	a4,a5,130 # 70082 <_data_lma+0x6ccca>
     9c8:	feb493e3          	bne	s1,a1,9ae <i2c_write+0xf4>
     9cc:	4509                	li	a0,2
     9ce:	bf21                	j	8e6 <i2c_write+0x2c>

000009d0 <save_name.part.8>:
     9d0:	f70ff2ef          	jal	t0,140 <__riscv_save_0>
     9d4:	1161                	addi	sp,sp,-8
     9d6:	00151413          	slli	s0,a0,0x1
     9da:	84aa                	mv	s1,a0
     9dc:	942a                	add	s0,s0,a0
     9de:	460d                	li	a2,3
     9e0:	0048                	addi	a0,sp,4
     9e2:	10040413          	addi	s0,s0,256
     9e6:	c02e                	sw	a1,0(sp)
     9e8:	341d                	jal	40e <strncpy>
     9ea:	470d                	li	a4,3
     9ec:	0054                	addi	a3,sp,4
     9ee:	85a2                	mv	a1,s0
     9f0:	4605                	li	a2,1
     9f2:	05200513          	li	a0,82
     9f6:	35d1                	jal	8ba <i2c_write>
     9f8:	00023537          	lui	a0,0x23
     9fc:	28050513          	addi	a0,a0,640 # 23280 <_data_lma+0x1fec8>
     a00:	3945                	jal	6b0 <DelaySysTick>
     a02:	4782                	lw	a5,0(sp)
     a04:	00003537          	lui	a0,0x3
     a08:	86a2                	mv	a3,s0
     a0a:	8626                	mv	a2,s1
     a0c:	85be                	mv	a1,a5
     a0e:	29050513          	addi	a0,a0,656 # 3290 <font_chars+0x240>
     a12:	3e5d                	jal	5c8 <printf>
     a14:	0121                	addi	sp,sp,8
     a16:	f34ff06f          	j	14a <__riscv_restore_0>

00000a1a <i2c_read>:
     a1a:	f26ff2ef          	jal	t0,140 <__riscv_save_0>
     a1e:	1141                	addi	sp,sp,-16
     a20:	87aa                	mv	a5,a0
     a22:	c036                	sw	a3,0(sp)
     a24:	84ba                	mv	s1,a4
     a26:	7d100513          	li	a0,2001
     a2a:	400052b7          	lui	t0,0x40005
     a2e:	40028693          	addi	a3,t0,1024 # 40005400 <__global_pointer$+0x20004a98>
     a32:	0186d303          	lhu	t1,24(a3)
     a36:	00237313          	andi	t1,t1,2
     a3a:	0e030f63          	beqz	t1,b38 <i2c_read+0x11e>
     a3e:	157d                	addi	a0,a0,-1
     a40:	f57d                	bnez	a0,a2e <i2c_read+0x14>
     a42:	4505                	li	a0,1
     a44:	0141                	addi	sp,sp,16
     a46:	f04ff06f          	j	14a <__riscv_restore_0>
     a4a:	147d                	addi	s0,s0,-1
     a4c:	ec45                	bnez	s0,b04 <i2c_read+0xea>
     a4e:	a299                	j	b94 <i2c_read+0x17a>
     a50:	e899                	bnez	s1,a66 <i2c_read+0x4c>
     a52:	4006d783          	lhu	a5,1024(a3)
     a56:	07c2                	slli	a5,a5,0x10
     a58:	83c1                	srli	a5,a5,0x10
     a5a:	bff7f793          	andi	a5,a5,-1025
     a5e:	07c2                	slli	a5,a5,0x10
     a60:	83c1                	srli	a5,a5,0x10
     a62:	40f69023          	sh	a5,1024(a3)
     a66:	4146d783          	lhu	a5,1044(a3)
     a6a:	0407f793          	andi	a5,a5,64
     a6e:	dfe5                	beqz	a5,a66 <i2c_read+0x4c>
     a70:	4702                	lw	a4,0(sp)
     a72:	4106d783          	lhu	a5,1040(a3)
     a76:	0705                	addi	a4,a4,1
     a78:	c03a                	sw	a4,0(sp)
     a7a:	fef70fa3          	sb	a5,-1(a4)
     a7e:	a869                	j	b18 <i2c_read+0xfe>
     a80:	ce11                	beqz	a2,a9c <i2c_read+0x82>
     a82:	0085d693          	srli	a3,a1,0x8
     a86:	400057b7          	lui	a5,0x40005
     a8a:	40d79823          	sh	a3,1040(a5) # 40005410 <__global_pointer$+0x20004aa8>
     a8e:	400056b7          	lui	a3,0x40005
     a92:	4146d783          	lhu	a5,1044(a3) # 40005414 <__global_pointer$+0x20004aac>
     a96:	0807f793          	andi	a5,a5,128
     a9a:	dfe5                	beqz	a5,a92 <i2c_read+0x78>
     a9c:	0ff5f593          	andi	a1,a1,255
     aa0:	400057b7          	lui	a5,0x40005
     aa4:	40b79823          	sh	a1,1040(a5) # 40005410 <__global_pointer$+0x20004aa8>
     aa8:	40005637          	lui	a2,0x40005
     aac:	41465683          	lhu	a3,1044(a2) # 40005414 <__global_pointer$+0x20004aac>
     ab0:	0806f693          	andi	a3,a3,128
     ab4:	dee5                	beqz	a3,aac <i2c_read+0x92>
     ab6:	4685                	li	a3,1
     ab8:	0096f863          	bgeu	a3,s1,ac8 <i2c_read+0xae>
     abc:	40065683          	lhu	a3,1024(a2)
     ac0:	4006e693          	ori	a3,a3,1024
     ac4:	40d61023          	sh	a3,1024(a2)
     ac8:	400056b7          	lui	a3,0x40005
     acc:	4006d783          	lhu	a5,1024(a3) # 40005400 <__global_pointer$+0x20004a98>
     ad0:	1007e793          	ori	a5,a5,256
     ad4:	40f69023          	sh	a5,1024(a3)
     ad8:	000307b7          	lui	a5,0x30
     adc:	0785                	addi	a5,a5,1
     ade:	853e                	mv	a0,a5
     ae0:	3925                	jal	718 <i2c_chk_evt>
     ae2:	000307b7          	lui	a5,0x30
     ae6:	0785                	addi	a5,a5,1
     ae8:	d97d                	beqz	a0,ade <i2c_read+0xc4>
     aea:	00146413          	ori	s0,s0,1
     aee:	0442                	slli	s0,s0,0x10
     af0:	8041                	srli	s0,s0,0x10
     af2:	400057b7          	lui	a5,0x40005
     af6:	40879823          	sh	s0,1040(a5) # 40005410 <__global_pointer$+0x20004aa8>
     afa:	000307b7          	lui	a5,0x30
     afe:	7d100413          	li	s0,2001
     b02:	0789                	addi	a5,a5,2
     b04:	853e                	mv	a0,a5
     b06:	3909                	jal	718 <i2c_chk_evt>
     b08:	000307b7          	lui	a5,0x30
     b0c:	0789                	addi	a5,a5,2
     b0e:	dd15                	beqz	a0,a4a <i2c_read+0x30>
     b10:	0ff00593          	li	a1,255
     b14:	400056b7          	lui	a3,0x40005
     b18:	fff48713          	addi	a4,s1,-1
     b1c:	0ff77493          	andi	s1,a4,255
     b20:	f2b498e3          	bne	s1,a1,a50 <i2c_read+0x36>
     b24:	40005737          	lui	a4,0x40005
     b28:	40075783          	lhu	a5,1024(a4) # 40005400 <__global_pointer$+0x20004a98>
     b2c:	4501                	li	a0,0
     b2e:	2007e793          	ori	a5,a5,512
     b32:	40f71023          	sh	a5,1024(a4)
     b36:	b739                	j	a44 <i2c_read+0x2a>
     b38:	228a                	lhu	a0,0(a3)
     b3a:	00030437          	lui	s0,0x30
     b3e:	0405                	addi	s0,s0,1
     b40:	10056513          	ori	a0,a0,256
     b44:	a28a                	sh	a0,0(a3)
     b46:	8522                	mv	a0,s0
     b48:	c632                	sw	a2,12(sp)
     b4a:	c42e                	sw	a1,8(sp)
     b4c:	c23e                	sw	a5,4(sp)
     b4e:	36e9                	jal	718 <i2c_chk_evt>
     b50:	4792                	lw	a5,4(sp)
     b52:	45a2                	lw	a1,8(sp)
     b54:	4632                	lw	a2,12(sp)
     b56:	d965                	beqz	a0,b46 <i2c_read+0x12c>
     b58:	00179413          	slli	s0,a5,0x1
     b5c:	0fe47693          	andi	a3,s0,254
     b60:	400057b7          	lui	a5,0x40005
     b64:	40d79823          	sh	a3,1040(a5) # 40005410 <__global_pointer$+0x20004aa8>
     b68:	000706b7          	lui	a3,0x70
     b6c:	7d100793          	li	a5,2001
     b70:	08268693          	addi	a3,a3,130 # 70082 <_data_lma+0x6ccca>
     b74:	8536                	mv	a0,a3
     b76:	c632                	sw	a2,12(sp)
     b78:	c42e                	sw	a1,8(sp)
     b7a:	c23e                	sw	a5,4(sp)
     b7c:	3e71                	jal	718 <i2c_chk_evt>
     b7e:	45a2                	lw	a1,8(sp)
     b80:	4632                	lw	a2,12(sp)
     b82:	ee051fe3          	bnez	a0,a80 <i2c_read+0x66>
     b86:	4792                	lw	a5,4(sp)
     b88:	00070737          	lui	a4,0x70
     b8c:	08270693          	addi	a3,a4,130 # 70082 <_data_lma+0x6ccca>
     b90:	17fd                	addi	a5,a5,-1
     b92:	f3ed                	bnez	a5,b74 <i2c_read+0x15a>
     b94:	4509                	li	a0,2
     b96:	b57d                	j	a44 <i2c_read+0x2a>

00000b98 <set_color>:
     b98:	da8ff2ef          	jal	t0,140 <__riscv_save_0>
     b9c:	200007b7          	lui	a5,0x20000
     ba0:	09c7c603          	lbu	a2,156(a5) # 2000009c <ledDivider>
     ba4:	0085d713          	srli	a4,a1,0x8
     ba8:	00151793          	slli	a5,a0,0x1
     bac:	1111                	addi	sp,sp,-28
     bae:	0ff5f313          	andi	t1,a1,255
     bb2:	0ff77713          	andi	a4,a4,255
     bb6:	0105d493          	srli	s1,a1,0x10
     bba:	8a818293          	addi	t0,gp,-1880 # 20000210 <led_array>
     bbe:	00a785b3          	add	a1,a5,a0
     bc2:	92ae                	add	t0,t0,a1
     bc4:	c82a                	sw	a0,16(sp)
     bc6:	85b2                	mv	a1,a2
     bc8:	853a                	mv	a0,a4
     bca:	ca1a                	sw	t1,20(sp)
     bcc:	c63e                	sw	a5,12(sp)
     bce:	c416                	sw	t0,8(sp)
     bd0:	c232                	sw	a2,4(sp)
     bd2:	c03a                	sw	a4,0(sp)
     bd4:	da0ff0ef          	jal	ra,174 <__udivsi3>
     bd8:	4702                	lw	a4,0(sp)
     bda:	85aa                	mv	a1,a0
     bdc:	0ff57513          	andi	a0,a0,255
     be0:	0ff4f493          	andi	s1,s1,255
     be4:	8a818413          	addi	s0,gp,-1880 # 20000210 <led_array>
     be8:	4612                	lw	a2,4(sp)
     bea:	42a2                	lw	t0,8(sp)
     bec:	47b2                	lw	a5,12(sp)
     bee:	46c2                	lw	a3,16(sp)
     bf0:	4352                	lw	t1,20(sp)
     bf2:	00a77363          	bgeu	a4,a0,bf8 <set_color+0x60>
     bf6:	85ba                	mv	a1,a4
     bf8:	00d78733          	add	a4,a5,a3
     bfc:	9722                	add	a4,a4,s0
     bfe:	00b280a3          	sb	a1,1(t0)
     c02:	851a                	mv	a0,t1
     c04:	85b2                	mv	a1,a2
     c06:	c836                	sw	a3,16(sp)
     c08:	c63e                	sw	a5,12(sp)
     c0a:	c43a                	sw	a4,8(sp)
     c0c:	c232                	sw	a2,4(sp)
     c0e:	c01a                	sw	t1,0(sp)
     c10:	d64ff0ef          	jal	ra,174 <__udivsi3>
     c14:	4302                	lw	t1,0(sp)
     c16:	85aa                	mv	a1,a0
     c18:	0ff57513          	andi	a0,a0,255
     c1c:	4612                	lw	a2,4(sp)
     c1e:	4722                	lw	a4,8(sp)
     c20:	47b2                	lw	a5,12(sp)
     c22:	46c2                	lw	a3,16(sp)
     c24:	00a37363          	bgeu	t1,a0,c2a <set_color+0x92>
     c28:	859a                	mv	a1,t1
     c2a:	97b6                	add	a5,a5,a3
     c2c:	a30c                	sb	a1,0(a4)
     c2e:	8526                	mv	a0,s1
     c30:	85b2                	mv	a1,a2
     c32:	943e                	add	s0,s0,a5
     c34:	d40ff0ef          	jal	ra,174 <__udivsi3>
     c38:	87aa                	mv	a5,a0
     c3a:	0ff57513          	andi	a0,a0,255
     c3e:	00a4f363          	bgeu	s1,a0,c44 <set_color+0xac>
     c42:	87a6                	mv	a5,s1
     c44:	a03c                	sb	a5,2(s0)
     c46:	0171                	addi	sp,sp,28
     c48:	d02ff06f          	j	14a <__riscv_restore_0>

00000c4c <clear>:
     c4c:	cf4ff2ef          	jal	t0,140 <__riscv_save_0>
     c50:	1171                	addi	sp,sp,-4
     c52:	4401                	li	s0,0
     c54:	00011023          	sh	zero,0(sp)
     c58:	00010123          	sb	zero,2(sp)
     c5c:	4582                	lw	a1,0(sp)
     c5e:	0ff47513          	andi	a0,s0,255
     c62:	0405                	addi	s0,s0,1
     c64:	3f15                	jal	b98 <set_color>
     c66:	04000793          	li	a5,64
     c6a:	fef415e3          	bne	s0,a5,c54 <clear+0x8>
     c6e:	0111                	addi	sp,sp,4
     c70:	cdaff06f          	j	14a <__riscv_restore_0>

00000c74 <font_draw>:
     c74:	cccff2ef          	jal	t0,140 <__riscv_save_0>
     c78:	1141                	addi	sp,sp,-16
     c7a:	872a                	mv	a4,a0
     c7c:	c62e                	sw	a1,12(sp)
     c7e:	4401                	li	s0,0
     c80:	008707b3          	add	a5,a4,s0
     c84:	239c                	lbu	a5,0(a5)
     c86:	cb9d                	beqz	a5,cbc <font_draw+0x48>
     c88:	44b9                	li	s1,14
     c8a:	8c81                	sub	s1,s1,s0
     c8c:	458d                	li	a1,3
     c8e:	8526                	mv	a0,s1
     c90:	c43a                	sw	a4,8(sp)
     c92:	c032                	sw	a2,0(sp)
     c94:	d30ff0ef          	jal	ra,1c4 <__modsi3>
     c98:	4602                	lw	a2,0(sp)
     c9a:	458d                	li	a1,3
     c9c:	00c507b3          	add	a5,a0,a2
     ca0:	8526                	mv	a0,s1
     ca2:	c232                	sw	a2,4(sp)
     ca4:	c03e                	sw	a5,0(sp)
     ca6:	cc6ff0ef          	jal	ra,16c <__divsi3>
     caa:	4782                	lw	a5,0(sp)
     cac:	050e                	slli	a0,a0,0x3
     cae:	45b2                	lw	a1,12(sp)
     cb0:	953e                	add	a0,a0,a5
     cb2:	0ff57513          	andi	a0,a0,255
     cb6:	35cd                	jal	b98 <set_color>
     cb8:	4722                	lw	a4,8(sp)
     cba:	4612                	lw	a2,4(sp)
     cbc:	0405                	addi	s0,s0,1
     cbe:	47bd                	li	a5,15
     cc0:	fcf410e3          	bne	s0,a5,c80 <font_draw+0xc>
     cc4:	0141                	addi	sp,sp,16
     cc6:	c84ff06f          	j	14a <__riscv_restore_0>

00000cca <Letter_draw.constprop.11>:
     cca:	c76ff2ef          	jal	t0,140 <__riscv_save_0>
     cce:	1171                	addi	sp,sp,-4
     cd0:	84aa                	mv	s1,a0
     cd2:	c02e                	sw	a1,0(sp)
     cd4:	4401                	li	s0,0
     cd6:	008487b3          	add	a5,s1,s0
     cda:	239c                	lbu	a5,0(a5)
     cdc:	cb81                	beqz	a5,cec <Letter_draw.constprop.11+0x22>
     cde:	03f00513          	li	a0,63
     ce2:	4582                	lw	a1,0(sp)
     ce4:	8d01                	sub	a0,a0,s0
     ce6:	0ff57513          	andi	a0,a0,255
     cea:	357d                	jal	b98 <set_color>
     cec:	0405                	addi	s0,s0,1
     cee:	04000793          	li	a5,64
     cf2:	fef412e3          	bne	s0,a5,cd6 <Letter_draw.constprop.11+0xc>
     cf6:	0111                	addi	sp,sp,4
     cf8:	c52ff06f          	j	14a <__riscv_restore_0>

00000cfc <ADC_read_pad>:
     cfc:	c44ff2ef          	jal	t0,140 <__riscv_save_0>
     d00:	4509                	li	a0,2
     d02:	3cc9                	jal	7d4 <GPIO_analogRead>
     d04:	c46ff06f          	j	14a <__riscv_restore_0>

00000d08 <ADC_read_smallboard>:
     d08:	c38ff2ef          	jal	t0,140 <__riscv_save_0>
     d0c:	3fc5                	jal	cfc <ADC_read_pad>
     d0e:	c3cff06f          	j	14a <__riscv_restore_0>

00000d12 <multiple_ADC_reads>:
     d12:	c2eff2ef          	jal	t0,140 <__riscv_save_0>
     d16:	862e                	mv	a2,a1
     d18:	1151                	addi	sp,sp,-12
     d1a:	872a                	mv	a4,a0
     d1c:	4401                	li	s0,0
     d1e:	4481                	li	s1,0
     d20:	4581                	li	a1,0
     d22:	00c44b63          	blt	s0,a2,d38 <multiple_ADC_reads+0x26>
     d26:	4681                	li	a3,0
     d28:	8526                	mv	a0,s1
     d2a:	5c6010ef          	jal	ra,22f0 <__udivdi3>
     d2e:	0542                	slli	a0,a0,0x10
     d30:	8141                	srli	a0,a0,0x10
     d32:	0131                	addi	sp,sp,12
     d34:	c16ff06f          	j	14a <__riscv_restore_0>
     d38:	c432                	sw	a2,8(sp)
     d3a:	c23a                	sw	a4,4(sp)
     d3c:	c02e                	sw	a1,0(sp)
     d3e:	9702                	jalr	a4
     d40:	4582                	lw	a1,0(sp)
     d42:	9526                	add	a0,a0,s1
     d44:	009536b3          	sltu	a3,a0,s1
     d48:	84aa                	mv	s1,a0
     d4a:	6531                	lui	a0,0xc
     d4c:	95b6                	add	a1,a1,a3
     d4e:	b8050513          	addi	a0,a0,-1152 # bb80 <_data_lma+0x87c8>
     d52:	0405                	addi	s0,s0,1
     d54:	c02e                	sw	a1,0(sp)
     d56:	0462                	slli	s0,s0,0x18
     d58:	959ff0ef          	jal	ra,6b0 <DelaySysTick>
     d5c:	8461                	srai	s0,s0,0x18
     d5e:	4622                	lw	a2,8(sp)
     d60:	4712                	lw	a4,4(sp)
     d62:	4582                	lw	a1,0(sp)
     d64:	bf7d                	j	d22 <multiple_ADC_reads+0x10>

00000d66 <JOY_check_button>:
     d66:	26b00713          	li	a4,619
     d6a:	87aa                	mv	a5,a0
     d6c:	00a76a63          	bltu	a4,a0,d80 <JOY_check_button+0x1a>
     d70:	26c00713          	li	a4,620
     d74:	8f09                	sub	a4,a4,a0
     d76:	46bd                	li	a3,15
     d78:	5579                	li	a0,-2
     d7a:	00e6c963          	blt	a3,a4,d8c <JOY_check_button+0x26>
     d7e:	8082                	ret
     d80:	27b00713          	li	a4,635
     d84:	5579                	li	a0,-2
     d86:	08f76d63          	bltu	a4,a5,e20 <JOY_check_button+0xba>
     d8a:	8082                	ret
     d8c:	16100713          	li	a4,353
     d90:	00f76963          	bltu	a4,a5,da2 <JOY_check_button+0x3c>
     d94:	16200713          	li	a4,354
     d98:	8f1d                	sub	a4,a4,a5
     d9a:	5575                	li	a0,-3
     d9c:	00e6cc63          	blt	a3,a4,db4 <JOY_check_button+0x4e>
     da0:	8082                	ret
     da2:	17100713          	li	a4,369
     da6:	5575                	li	a0,-3
     da8:	06f77b63          	bgeu	a4,a5,e1e <JOY_check_button+0xb8>
     dac:	20100713          	li	a4,513
     db0:	00f76a63          	bltu	a4,a5,dc4 <JOY_check_button+0x5e>
     db4:	20200693          	li	a3,514
     db8:	8e9d                	sub	a3,a3,a5
     dba:	473d                	li	a4,15
     dbc:	5571                	li	a0,-4
     dbe:	00d74963          	blt	a4,a3,dd0 <JOY_check_button+0x6a>
     dc2:	8082                	ret
     dc4:	21100713          	li	a4,529
     dc8:	5571                	li	a0,-4
     dca:	02f76d63          	bltu	a4,a5,e04 <JOY_check_button+0x9e>
     dce:	8082                	ret
     dd0:	1aa00693          	li	a3,426
     dd4:	00f6e963          	bltu	a3,a5,de6 <JOY_check_button+0x80>
     dd8:	1ab00693          	li	a3,427
     ddc:	8e9d                	sub	a3,a3,a5
     dde:	556d                	li	a0,-5
     de0:	02d74263          	blt	a4,a3,e04 <JOY_check_button+0x9e>
     de4:	8082                	ret
     de6:	1ba00693          	li	a3,442
     dea:	556d                	li	a0,-5
     dec:	02f6f963          	bgeu	a3,a5,e1e <JOY_check_button+0xb8>
     df0:	1d400693          	li	a3,468
     df4:	02f6e063          	bltu	a3,a5,e14 <JOY_check_button+0xae>
     df8:	1d500693          	li	a3,469
     dfc:	8e9d                	sub	a3,a3,a5
     dfe:	555d                	li	a0,-9
     e00:	00d75f63          	bge	a4,a3,e1e <JOY_check_button+0xb8>
     e04:	2ab00693          	li	a3,683
     e08:	8e9d                	sub	a3,a3,a5
     e0a:	473d                	li	a4,15
     e0c:	5559                	li	a0,-10
     e0e:	02d74363          	blt	a4,a3,e34 <JOY_check_button+0xce>
     e12:	8082                	ret
     e14:	1e400713          	li	a4,484
     e18:	555d                	li	a0,-9
     e1a:	fef765e3          	bltu	a4,a5,e04 <JOY_check_button+0x9e>
     e1e:	8082                	ret
     e20:	2aa00713          	li	a4,682
     e24:	fef770e3          	bgeu	a4,a5,e04 <JOY_check_button+0x9e>
     e28:	2ba00713          	li	a4,698
     e2c:	5559                	li	a0,-10
     e2e:	02f76363          	bltu	a4,a5,e54 <JOY_check_button+0xee>
     e32:	8082                	ret
     e34:	23300693          	li	a3,563
     e38:	00f6e963          	bltu	a3,a5,e4a <JOY_check_button+0xe4>
     e3c:	23400693          	li	a3,564
     e40:	8e9d                	sub	a3,a3,a5
     e42:	5555                	li	a0,-11
     e44:	00d74b63          	blt	a4,a3,e5a <JOY_check_button+0xf4>
     e48:	8082                	ret
     e4a:	24300713          	li	a4,579
     e4e:	5555                	li	a0,-11
     e50:	fcf777e3          	bgeu	a4,a5,e1e <JOY_check_button+0xb8>
     e54:	1507b793          	sltiu	a5,a5,336
     e58:	a815                	j	e8c <JOY_check_button+0x126>
     e5a:	18400693          	li	a3,388
     e5e:	00f6e963          	bltu	a3,a5,e70 <JOY_check_button+0x10a>
     e62:	18500693          	li	a3,389
     e66:	8e9d                	sub	a3,a3,a5
     e68:	5569                	li	a0,-6
     e6a:	00d74763          	blt	a4,a3,e78 <JOY_check_button+0x112>
     e6e:	8082                	ret
     e70:	19400713          	li	a4,404
     e74:	5569                	li	a0,-6
     e76:	bfe9                	j	e50 <JOY_check_button+0xea>
     e78:	13f00713          	li	a4,319
     e7c:	fcf76ce3          	bltu	a4,a5,e54 <JOY_check_button+0xee>
     e80:	14000513          	li	a0,320
     e84:	40f507b3          	sub	a5,a0,a5
     e88:	0107a793          	slti	a5,a5,16
     e8c:	5565                	li	a0,-7
     e8e:	fbc1                	bnez	a5,e1e <JOY_check_button+0xb8>
     e90:	557d                	li	a0,-1
     e92:	b771                	j	e1e <JOY_check_button+0xb8>

00000e94 <JOY_random>:
     e94:	96c18793          	addi	a5,gp,-1684 # 200002d4 <rnval>
     e98:	239a                	lhu	a4,0(a5)
     e9a:	76ed                	lui	a3,0xffffb
     e9c:	40068693          	addi	a3,a3,1024 # ffffb400 <__global_pointer$+0xdfffaa98>
     ea0:	00177513          	andi	a0,a4,1
     ea4:	40a00533          	neg	a0,a0
     ea8:	8d75                	and	a0,a0,a3
     eaa:	8305                	srli	a4,a4,0x1
     eac:	8d39                	xor	a0,a0,a4
     eae:	0542                	slli	a0,a0,0x10
     eb0:	8141                	srli	a0,a0,0x10
     eb2:	a38a                	sh	a0,0(a5)
     eb4:	8082                	ret

00000eb6 <JOY_sound>:
     eb6:	a8aff2ef          	jal	t0,140 <__riscv_save_0>
     eba:	40011637          	lui	a2,0x40011
     ebe:	421c                	lw	a5,0(a2)
     ec0:	76c5                	lui	a3,0xffff1
     ec2:	16fd                	addi	a3,a3,-1
     ec4:	8ff5                	and	a5,a5,a3
     ec6:	668d                	lui	a3,0x3
     ec8:	8fd5                	or	a5,a5,a3
     eca:	1161                	addi	sp,sp,-8
     ecc:	c21c                	sw	a5,0(a2)
     ece:	84ae                	mv	s1,a1
     ed0:	c02a                	sw	a0,0(sp)
     ed2:	85aa                	mv	a1,a0
     ed4:	0007a537          	lui	a0,0x7a
     ed8:	00549413          	slli	s0,s1,0x5
     edc:	12050513          	addi	a0,a0,288 # 7a120 <_data_lma+0x76d68>
     ee0:	a8cff0ef          	jal	ra,16c <__divsi3>
     ee4:	8c05                	sub	s0,s0,s1
     ee6:	040a                	slli	s0,s0,0x2
     ee8:	00151793          	slli	a5,a0,0x1
     eec:	4702                	lw	a4,0(sp)
     eee:	9426                	add	s0,s0,s1
     ef0:	953e                	add	a0,a0,a5
     ef2:	040e                	slli	s0,s0,0x3
     ef4:	00451493          	slli	s1,a0,0x4
     ef8:	3e800693          	li	a3,1000
     efc:	0286e563          	bltu	a3,s0,f26 <JOY_sound+0x70>
     f00:	c711                	beqz	a4,f0c <JOY_sound+0x56>
     f02:	400117b7          	lui	a5,0x40011
     f06:	00080737          	lui	a4,0x80
     f0a:	cb98                	sw	a4,16(a5)
     f0c:	8526                	mv	a0,s1
     f0e:	fa2ff0ef          	jal	ra,6b0 <DelaySysTick>
     f12:	400117b7          	lui	a5,0x40011
     f16:	4721                	li	a4,8
     f18:	cb98                	sw	a4,16(a5)
     f1a:	8526                	mv	a0,s1
     f1c:	f94ff0ef          	jal	ra,6b0 <DelaySysTick>
     f20:	0121                	addi	sp,sp,8
     f22:	a28ff06f          	j	14a <__riscv_restore_0>
     f26:	c711                	beqz	a4,f32 <JOY_sound+0x7c>
     f28:	400116b7          	lui	a3,0x40011
     f2c:	00080637          	lui	a2,0x80
     f30:	ca90                	sw	a2,16(a3)
     f32:	8526                	mv	a0,s1
     f34:	c23e                	sw	a5,4(sp)
     f36:	c03a                	sw	a4,0(sp)
     f38:	f78ff0ef          	jal	ra,6b0 <DelaySysTick>
     f3c:	400116b7          	lui	a3,0x40011
     f40:	4621                	li	a2,8
     f42:	ca90                	sw	a2,16(a3)
     f44:	8526                	mv	a0,s1
     f46:	f6aff0ef          	jal	ra,6b0 <DelaySysTick>
     f4a:	4792                	lw	a5,4(sp)
     f4c:	c1840413          	addi	s0,s0,-1000 # 2fc18 <_data_lma+0x2c860>
     f50:	4702                	lw	a4,0(sp)
     f52:	fa87f3e3          	bgeu	a5,s0,ef8 <JOY_sound+0x42>
     f56:	8c1d                	sub	s0,s0,a5
     f58:	b745                	j	ef8 <JOY_sound+0x42>

00000f5a <WS2812BSimpleSend>:
     f5a:	9e6ff2ef          	jal	t0,140 <__riscv_save_0>
     f5e:	bfff0737          	lui	a4,0xbfff0
     f62:	84aa                	mv	s1,a0
     f64:	80070713          	addi	a4,a4,-2048 # bffef800 <__global_pointer$+0x9ffeee98>
     f68:	40021537          	lui	a0,0x40021
     f6c:	01852303          	lw	t1,24(a0) # 40021018 <__global_pointer$+0x200206b0>
     f70:	9726                	add	a4,a4,s1
     f72:	8729                	srai	a4,a4,0xa
     f74:	4291                	li	t0,4
     f76:	00e29733          	sll	a4,t0,a4
     f7a:	00676733          	or	a4,a4,t1
     f7e:	cd18                	sw	a4,24(a0)
     f80:	4088                	lw	a0,0(s1)
     f82:	00259313          	slli	t1,a1,0x2
     f86:	473d                	li	a4,15
     f88:	00671733          	sll	a4,a4,t1
     f8c:	fff74713          	not	a4,a4
     f90:	8f69                	and	a4,a4,a0
     f92:	4509                	li	a0,2
     f94:	4405                	li	s0,1
     f96:	00651533          	sll	a0,a0,t1
     f9a:	00b417b3          	sll	a5,s0,a1
     f9e:	1131                	addi	sp,sp,-20
     fa0:	8f49                	or	a4,a4,a0
     fa2:	05c1                	addi	a1,a1,16
     fa4:	c098                	sw	a4,0(s1)
     fa6:	c03e                	sw	a5,0(sp)
     fa8:	00b41433          	sll	s0,s0,a1
     fac:	00d607b3          	add	a5,a2,a3
     fb0:	c880                	sw	s0,16(s1)
     fb2:	c23e                	sw	a5,4(sp)
     fb4:	4792                	lw	a5,4(sp)
     fb6:	00f61663          	bne	a2,a5,fc2 <WS2812BSimpleSend+0x68>
     fba:	c880                	sw	s0,16(s1)
     fbc:	0151                	addi	sp,sp,20
     fbe:	98cff06f          	j	14a <__riscv_restore_0>
     fc2:	2218                	lbu	a4,0(a2)
     fc4:	46a1                	li	a3,8
     fc6:	01871593          	slli	a1,a4,0x18
     fca:	85e1                	srai	a1,a1,0x18
     fcc:	c832                	sw	a2,16(sp)
     fce:	c63a                	sw	a4,12(sp)
     fd0:	c436                	sw	a3,8(sp)
     fd2:	0205d563          	bgez	a1,ffc <WS2812BSimpleSend+0xa2>
     fd6:	4782                	lw	a5,0(sp)
     fd8:	4565                	li	a0,25
     fda:	c89c                	sw	a5,16(s1)
     fdc:	ed4ff0ef          	jal	ra,6b0 <DelaySysTick>
     fe0:	4505                	li	a0,1
     fe2:	c880                	sw	s0,16(s1)
     fe4:	eccff0ef          	jal	ra,6b0 <DelaySysTick>
     fe8:	46a2                	lw	a3,8(sp)
     fea:	4732                	lw	a4,12(sp)
     fec:	4642                	lw	a2,16(sp)
     fee:	0706                	slli	a4,a4,0x1
     ff0:	16fd                	addi	a3,a3,-1
     ff2:	0ff77713          	andi	a4,a4,255
     ff6:	fae1                	bnez	a3,fc6 <WS2812BSimpleSend+0x6c>
     ff8:	0605                	addi	a2,a2,1
     ffa:	bf6d                	j	fb4 <WS2812BSimpleSend+0x5a>
     ffc:	300025f3          	csrr	a1,mstatus
    1000:	f775f593          	andi	a1,a1,-137
    1004:	30059073          	csrw	mstatus,a1
    1008:	4782                	lw	a5,0(sp)
    100a:	c89c                	sw	a5,16(s1)
    100c:	0001                	nop
    100e:	0001                	nop
    1010:	0001                	nop
    1012:	0001                	nop
    1014:	c880                	sw	s0,16(s1)
    1016:	300025f3          	csrr	a1,mstatus
    101a:	0885e593          	ori	a1,a1,136
    101e:	30059073          	csrw	mstatus,a1
    1022:	453d                	li	a0,15
    1024:	e8cff0ef          	jal	ra,6b0 <DelaySysTick>
    1028:	4642                	lw	a2,16(sp)
    102a:	4732                	lw	a4,12(sp)
    102c:	46a2                	lw	a3,8(sp)
    102e:	b7c1                	j	fee <WS2812BSimpleSend+0x94>

00001030 <generate_apple>:
    1030:	910ff2ef          	jal	t0,140 <__riscv_save_0>
    1034:	82418413          	addi	s0,gp,-2012 # 2000018c <gameBoard>
    1038:	3db1                	jal	e94 <JOY_random>
    103a:	03f57513          	andi	a0,a0,63
    103e:	0506                	slli	a0,a0,0x1
    1040:	9522                	add	a0,a0,s0
    1042:	00050703          	lb	a4,0(a0)
    1046:	03000793          	li	a5,48
    104a:	fef717e3          	bne	a4,a5,1038 <generate_apple+0x8>
    104e:	06100793          	li	a5,97
    1052:	a11e                	sh	a5,0(a0)
    1054:	8f6ff06f          	j	14a <__riscv_restore_0>

00001058 <game_init>:
    1058:	8e8ff2ef          	jal	t0,140 <__riscv_save_0>
    105c:	82418793          	addi	a5,gp,-2012 # 2000018c <gameBoard>
    1060:	08078693          	addi	a3,a5,128 # 40011080 <__global_pointer$+0x20010718>
    1064:	82418713          	addi	a4,gp,-2012 # 2000018c <gameBoard>
    1068:	03000613          	li	a2,48
    106c:	a390                	sb	a2,0(a5)
    106e:	000780a3          	sb	zero,1(a5)
    1072:	0789                	addi	a5,a5,2
    1074:	fed79ce3          	bne	a5,a3,106c <game_init+0x14>
    1078:	02f00693          	li	a3,47
    107c:	96d18da3          	sb	a3,-1669(gp) # 200002e3 <snakeTail>
    1080:	02d00693          	li	a3,45
    1084:	96d18d23          	sb	a3,-1670(gp) # 200002e2 <snakeHead>
    1088:	f6800793          	li	a5,-152
    108c:	04f71d23          	sh	a5,90(a4)
    1090:	ff7507b7          	lui	a5,0xff750
    1094:	f6278793          	addi	a5,a5,-158 # ff74ff62 <__global_pointer$+0xdf74f5fa>
    1098:	cf7c                	sw	a5,92(a4)
    109a:	96018723          	sb	zero,-1682(gp) # 200002d6 <score>
    109e:	96019e23          	sh	zero,-1668(gp) # 200002e4 <speedCounter>
    10a2:	3779                	jal	1030 <generate_apple>
    10a4:	8a6ff06f          	j	14a <__riscv_restore_0>

000010a8 <display>:
    10a8:	898ff2ef          	jal	t0,140 <__riscv_save_0>
    10ac:	1171                	addi	sp,sp,-4
    10ae:	3e79                	jal	c4c <clear>
    10b0:	8a51c783          	lbu	a5,-1883(gp) # 2000020d <game_regime>
    10b4:	cb81                	beqz	a5,10c4 <display+0x1c>
    10b6:	200007b7          	lui	a5,0x20000
    10ba:	1007a583          	lw	a1,256(a5) # 20000100 <speedBoostColor>
    10be:	03f00513          	li	a0,63
    10c2:	3cd9                	jal	b98 <set_color>
    10c4:	40011537          	lui	a0,0x40011
    10c8:	8a818613          	addi	a2,gp,-1880 # 20000210 <led_array>
    10cc:	0c000693          	li	a3,192
    10d0:	4589                	li	a1,2
    10d2:	80050513          	addi	a0,a0,-2048 # 40010800 <__global_pointer$+0x2000fe98>
    10d6:	3551                	jal	f5a <WS2812BSimpleSend>
    10d8:	c026                	sw	s1,0(sp)
    10da:	4401                	li	s0,0
    10dc:	82418493          	addi	s1,gp,-2012 # 2000018c <gameBoard>
    10e0:	00141793          	slli	a5,s0,0x1
    10e4:	97a6                	add	a5,a5,s1
    10e6:	00078783          	lb	a5,0(a5)
    10ea:	06200713          	li	a4,98
    10ee:	0ff47513          	andi	a0,s0,255
    10f2:	04e78b63          	beq	a5,a4,1148 <display+0xa0>
    10f6:	00f74963          	blt	a4,a5,1108 <display+0x60>
    10fa:	06100713          	li	a4,97
    10fe:	04e78f63          	beq	a5,a4,115c <display+0xb4>
    1102:	81c1a583          	lw	a1,-2020(gp) # 20000184 <blankColor>
    1106:	a829                	j	1120 <display+0x78>
    1108:	06800713          	li	a4,104
    110c:	04e78363          	beq	a5,a4,1152 <display+0xaa>
    1110:	07400713          	li	a4,116
    1114:	fee797e3          	bne	a5,a4,1102 <display+0x5a>
    1118:	200007b7          	lui	a5,0x20000
    111c:	0fc7a583          	lw	a1,252(a5) # 200000fc <snakeTailColor>
    1120:	3ca5                	jal	b98 <set_color>
    1122:	0405                	addi	s0,s0,1
    1124:	03f00793          	li	a5,63
    1128:	faf41ce3          	bne	s0,a5,10e0 <display+0x38>
    112c:	4782                	lw	a5,0(sp)
    112e:	40011537          	lui	a0,0x40011
    1132:	0c000693          	li	a3,192
    1136:	8a818613          	addi	a2,gp,-1880 # 20000210 <led_array>
    113a:	4589                	li	a1,2
    113c:	80050513          	addi	a0,a0,-2048 # 40010800 <__global_pointer$+0x2000fe98>
    1140:	3d29                	jal	f5a <WS2812BSimpleSend>
    1142:	0111                	addi	sp,sp,4
    1144:	806ff06f          	j	14a <__riscv_restore_0>
    1148:	200007b7          	lui	a5,0x20000
    114c:	0f47a583          	lw	a1,244(a5) # 200000f4 <snakeBodyColor>
    1150:	bfc1                	j	1120 <display+0x78>
    1152:	200007b7          	lui	a5,0x20000
    1156:	0f87a583          	lw	a1,248(a5) # 200000f8 <snakeHeadColor>
    115a:	b7d9                	j	1120 <display+0x78>
    115c:	200007b7          	lui	a5,0x20000
    1160:	0687a583          	lw	a1,104(a5) # 20000068 <appleColor>
    1164:	bf75                	j	1120 <display+0x78>

00001166 <get_new_direction>:
    1166:	fdbfe2ef          	jal	t0,140 <__riscv_save_0>
    116a:	000014b7          	lui	s1,0x1
    116e:	4595                	li	a1,5
    1170:	842a                	mv	s0,a0
    1172:	d0848513          	addi	a0,s1,-760 # d08 <ADC_read_smallboard>
    1176:	3e71                	jal	d12 <multiple_ADC_reads>
    1178:	36fd                	jal	d66 <JOY_check_button>
    117a:	57f9                	li	a5,-2
    117c:	00f51563          	bne	a0,a5,1186 <get_new_direction+0x20>
    1180:	57e1                	li	a5,-8
    1182:	04f41763          	bne	s0,a5,11d0 <get_new_direction+0x6a>
    1186:	4595                	li	a1,5
    1188:	d0848513          	addi	a0,s1,-760
    118c:	3659                	jal	d12 <multiple_ADC_reads>
    118e:	3ee1                	jal	d66 <JOY_check_button>
    1190:	57f5                	li	a5,-3
    1192:	00f51563          	bne	a0,a5,119c <get_new_direction+0x36>
    1196:	47a1                	li	a5,8
    1198:	02f41e63          	bne	s0,a5,11d4 <get_new_direction+0x6e>
    119c:	4595                	li	a1,5
    119e:	d0848513          	addi	a0,s1,-760
    11a2:	3e85                	jal	d12 <multiple_ADC_reads>
    11a4:	36c9                	jal	d66 <JOY_check_button>
    11a6:	57f1                	li	a5,-4
    11a8:	00f51563          	bne	a0,a5,11b2 <get_new_direction+0x4c>
    11ac:	57fd                	li	a5,-1
    11ae:	00f41d63          	bne	s0,a5,11c8 <get_new_direction+0x62>
    11b2:	4595                	li	a1,5
    11b4:	d0848513          	addi	a0,s1,-760
    11b8:	3ea9                	jal	d12 <multiple_ADC_reads>
    11ba:	3675                	jal	d66 <JOY_check_button>
    11bc:	57ed                	li	a5,-5
    11be:	00f51663          	bne	a0,a5,11ca <get_new_direction+0x64>
    11c2:	4785                	li	a5,1
    11c4:	00f41a63          	bne	s0,a5,11d8 <get_new_direction+0x72>
    11c8:	4405                	li	s0,1
    11ca:	8522                	mv	a0,s0
    11cc:	f7ffe06f          	j	14a <__riscv_restore_0>
    11d0:	4421                	li	s0,8
    11d2:	bfe5                	j	11ca <get_new_direction+0x64>
    11d4:	5461                	li	s0,-8
    11d6:	bfd5                	j	11ca <get_new_direction+0x64>
    11d8:	547d                	li	s0,-1
    11da:	bfc5                	j	11ca <get_new_direction+0x64>

000011dc <check_collision>:
    11dc:	0ff57693          	andi	a3,a0,255
    11e0:	03f00793          	li	a5,63
    11e4:	872a                	mv	a4,a0
    11e6:	04d7ed63          	bltu	a5,a3,1240 <check_collision+0x64>
    11ea:	00757693          	andi	a3,a0,7
    11ee:	82418793          	addi	a5,gp,-2012 # 2000018c <gameBoard>
    11f2:	ee81                	bnez	a3,120a <check_collision+0x2e>
    11f4:	97a18683          	lb	a3,-1670(gp) # 200002e2 <snakeHead>
    11f8:	4505                	li	a0,1
    11fa:	0686                	slli	a3,a3,0x1
    11fc:	96be                	add	a3,a3,a5
    11fe:	00168603          	lb	a2,1(a3) # 40011001 <__global_pointer$+0x20010699>
    1202:	4685                	li	a3,1
    1204:	02d61063          	bne	a2,a3,1224 <check_collision+0x48>
    1208:	8082                	ret
    120a:	461d                	li	a2,7
    120c:	00c69c63          	bne	a3,a2,1224 <check_collision+0x48>
    1210:	97a18683          	lb	a3,-1670(gp) # 200002e2 <snakeHead>
    1214:	4505                	li	a0,1
    1216:	0686                	slli	a3,a3,0x1
    1218:	96be                	add	a3,a3,a5
    121a:	00168603          	lb	a2,1(a3)
    121e:	56fd                	li	a3,-1
    1220:	02d60163          	beq	a2,a3,1242 <check_collision+0x66>
    1224:	0706                	slli	a4,a4,0x1
    1226:	97ba                	add	a5,a5,a4
    1228:	00078783          	lb	a5,0(a5)
    122c:	06200713          	li	a4,98
    1230:	4505                	li	a0,1
    1232:	00e78863          	beq	a5,a4,1242 <check_collision+0x66>
    1236:	f9878513          	addi	a0,a5,-104
    123a:	00153513          	seqz	a0,a0
    123e:	8082                	ret
    1240:	4505                	li	a0,1
    1242:	8082                	ret

00001244 <move_snake>:
    1244:	97a18783          	lb	a5,-1670(gp) # 200002e2 <snakeHead>
    1248:	82418613          	addi	a2,gp,-2012 # 2000018c <gameBoard>
    124c:	00179313          	slli	t1,a5,0x1
    1250:	961a                	add	a2,a2,t1
    1252:	b208                	sb	a0,1(a2)
    1254:	953e                	add	a0,a0,a5
    1256:	0ff57513          	andi	a0,a0,255
    125a:	06200313          	li	t1,98
    125e:	01851793          	slli	a5,a0,0x18
    1262:	00660023          	sb	t1,0(a2) # 80000 <_data_lma+0x7cc48>
    1266:	87e1                	srai	a5,a5,0x18
    1268:	97a18693          	addi	a3,gp,-1670 # 200002e2 <snakeHead>
    126c:	82418713          	addi	a4,gp,-2012 # 2000018c <gameBoard>
    1270:	0607d563          	bgez	a5,12da <move_snake+0x96>
    1274:	04050513          	addi	a0,a0,64
    1278:	01851793          	slli	a5,a0,0x18
    127c:	87e1                	srai	a5,a5,0x18
    127e:	00179513          	slli	a0,a5,0x1
    1282:	a29c                	sb	a5,0(a3)
    1284:	953a                	add	a0,a0,a4
    1286:	06800793          	li	a5,104
    128a:	a11c                	sb	a5,0(a0)
    128c:	e5b1                	bnez	a1,12d8 <move_snake+0x94>
    128e:	97b18783          	lb	a5,-1669(gp) # 200002e3 <snakeTail>
    1292:	03000513          	li	a0,48
    1296:	97b18693          	addi	a3,gp,-1669 # 200002e3 <snakeTail>
    129a:	00179613          	slli	a2,a5,0x1
    129e:	963a                	add	a2,a2,a4
    12a0:	00160583          	lb	a1,1(a2)
    12a4:	a208                	sb	a0,0(a2)
    12a6:	97ae                	add	a5,a5,a1
    12a8:	0ff7f793          	andi	a5,a5,255
    12ac:	01879613          	slli	a2,a5,0x18
    12b0:	8661                	srai	a2,a2,0x18
    12b2:	02064b63          	bltz	a2,12e8 <move_snake+0xa4>
    12b6:	a290                	sb	a2,0(a3)
    12b8:	00068783          	lb	a5,0(a3)
    12bc:	03f00613          	li	a2,63
    12c0:	00f65563          	bge	a2,a5,12ca <move_snake+0x86>
    12c4:	fc078793          	addi	a5,a5,-64
    12c8:	a29c                	sb	a5,0(a3)
    12ca:	00068783          	lb	a5,0(a3)
    12ce:	0786                	slli	a5,a5,0x1
    12d0:	973e                	add	a4,a4,a5
    12d2:	07400793          	li	a5,116
    12d6:	a31c                	sb	a5,0(a4)
    12d8:	8082                	ret
    12da:	03f00613          	li	a2,63
    12de:	faf650e3          	bge	a2,a5,127e <move_snake+0x3a>
    12e2:	fc050513          	addi	a0,a0,-64
    12e6:	bf49                	j	1278 <move_snake+0x34>
    12e8:	04078793          	addi	a5,a5,64
    12ec:	a29c                	sb	a5,0(a3)
    12ee:	b7e9                	j	12b8 <move_snake+0x74>

000012f0 <show_current_score>:
    12f0:	e51fe2ef          	jal	t0,140 <__riscv_save_0>
    12f4:	1171                	addi	sp,sp,-4
    12f6:	957ff0ef          	jal	ra,c4c <clear>
    12fa:	96e1c783          	lbu	a5,-1682(gp) # 200002d6 <score>
    12fe:	45a9                	li	a1,10
    1300:	20000437          	lui	s0,0x20000
    1304:	853e                	mv	a0,a5
    1306:	c03e                	sw	a5,0(sp)
    1308:	e6dfe0ef          	jal	ra,174 <__udivsi3>
    130c:	0ff57513          	andi	a0,a0,255
    1310:	06c40413          	addi	s0,s0,108 # 2000006c <font_list>
    1314:	200004b7          	lui	s1,0x20000
    1318:	050a                	slli	a0,a0,0x2
    131a:	0f048493          	addi	s1,s1,240 # 200000f0 <scoreColor>
    131e:	9522                	add	a0,a0,s0
    1320:	408c                	lw	a1,0(s1)
    1322:	4108                	lw	a0,0(a0)
    1324:	4611                	li	a2,4
    1326:	94fff0ef          	jal	ra,c74 <font_draw>
    132a:	4782                	lw	a5,0(sp)
    132c:	45a9                	li	a1,10
    132e:	853e                	mv	a0,a5
    1330:	e71fe0ef          	jal	ra,1a0 <__umodsi3>
    1334:	0ff57513          	andi	a0,a0,255
    1338:	050a                	slli	a0,a0,0x2
    133a:	942a                	add	s0,s0,a0
    133c:	408c                	lw	a1,0(s1)
    133e:	4008                	lw	a0,0(s0)
    1340:	4601                	li	a2,0
    1342:	933ff0ef          	jal	ra,c74 <font_draw>
    1346:	40011537          	lui	a0,0x40011
    134a:	0c000693          	li	a3,192
    134e:	8a818613          	addi	a2,gp,-1880 # 20000210 <led_array>
    1352:	4589                	li	a1,2
    1354:	80050513          	addi	a0,a0,-2048 # 40010800 <__global_pointer$+0x2000fe98>
    1358:	3109                	jal	f5a <WS2812BSimpleSend>
    135a:	0111                	addi	sp,sp,4
    135c:	deffe06f          	j	14a <__riscv_restore_0>

00001360 <display_letter>:
    1360:	de1fe2ef          	jal	t0,140 <__riscv_save_0>
    1364:	200007b7          	lui	a5,0x20000
    1368:	050a                	slli	a0,a0,0x2
    136a:	00078793          	mv	a5,a5
    136e:	97aa                	add	a5,a5,a0
    1370:	4388                	lw	a0,0(a5)
    1372:	1171                	addi	sp,sp,-4
    1374:	8432                	mv	s0,a2
    1376:	955ff0ef          	jal	ra,cca <Letter_draw.constprop.11>
    137a:	40011537          	lui	a0,0x40011
    137e:	0c000693          	li	a3,192
    1382:	8a818613          	addi	a2,gp,-1880 # 20000210 <led_array>
    1386:	4589                	li	a1,2
    1388:	80050513          	addi	a0,a0,-2048 # 40010800 <__global_pointer$+0x2000fe98>
    138c:	36f9                	jal	f5a <WS2812BSimpleSend>
    138e:	65b1                	lui	a1,0xc
    1390:	b8058593          	addi	a1,a1,-1152 # bb80 <_data_lma+0x87c8>
    1394:	8522                	mv	a0,s0
    1396:	dbffe0ef          	jal	ra,154 <__mulsi3>
    139a:	b16ff0ef          	jal	ra,6b0 <DelaySysTick>
    139e:	8afff0ef          	jal	ra,c4c <clear>
    13a2:	0111                	addi	sp,sp,4
    13a4:	da7fe06f          	j	14a <__riscv_restore_0>

000013a8 <display_full_message>:
    13a8:	d99fe2ef          	jal	t0,140 <__riscv_save_0>
    13ac:	1161                	addi	sp,sp,-8
    13ae:	c02e                	sw	a1,0(sp)
    13b0:	65b1                	lui	a1,0xc
    13b2:	842a                	mv	s0,a0
    13b4:	b8058593          	addi	a1,a1,-1152 # bb80 <_data_lma+0x87c8>
    13b8:	8536                	mv	a0,a3
    13ba:	d9bfe0ef          	jal	ra,154 <__mulsi3>
    13be:	4302                	lw	t1,0(sp)
    13c0:	84aa                	mv	s1,a0
    13c2:	9322                	add	t1,t1,s0
    13c4:	200002b7          	lui	t0,0x20000
    13c8:	00641563          	bne	s0,t1,13d2 <display_full_message+0x2a>
    13cc:	0121                	addi	sp,sp,8
    13ce:	d7dfe06f          	j	14a <__riscv_restore_0>
    13d2:	201c                	lbu	a5,0(s0)
    13d4:	0a028693          	addi	a3,t0,160 # 200000a0 <letters_color>
    13d8:	c01a                	sw	t1,0(sp)
    13da:	00179713          	slli	a4,a5,0x1
    13de:	973e                	add	a4,a4,a5
    13e0:	96ba                	add	a3,a3,a4
    13e2:	20000737          	lui	a4,0x20000
    13e6:	00070713          	mv	a4,a4
    13ea:	078a                	slli	a5,a5,0x2
    13ec:	97ba                	add	a5,a5,a4
    13ee:	3298                	lbu	a4,1(a3)
    13f0:	228c                	lbu	a1,0(a3)
    13f2:	4388                	lw	a0,0(a5)
    13f4:	0722                	slli	a4,a4,0x8
    13f6:	8f4d                	or	a4,a4,a1
    13f8:	22ac                	lbu	a1,2(a3)
    13fa:	0405                	addi	s0,s0,1
    13fc:	05c2                	slli	a1,a1,0x10
    13fe:	8dd9                	or	a1,a1,a4
    1400:	8cbff0ef          	jal	ra,cca <Letter_draw.constprop.11>
    1404:	40011537          	lui	a0,0x40011
    1408:	0c000693          	li	a3,192
    140c:	8a818613          	addi	a2,gp,-1880 # 20000210 <led_array>
    1410:	4589                	li	a1,2
    1412:	80050513          	addi	a0,a0,-2048 # 40010800 <__global_pointer$+0x2000fe98>
    1416:	3691                	jal	f5a <WS2812BSimpleSend>
    1418:	8526                	mv	a0,s1
    141a:	a96ff0ef          	jal	ra,6b0 <DelaySysTick>
    141e:	82fff0ef          	jal	ra,c4c <clear>
    1422:	4302                	lw	t1,0(sp)
    1424:	b745                	j	13c4 <display_full_message+0x1c>

00001426 <choose_your_name>:
    1426:	d1bfe2ef          	jal	t0,140 <__riscv_save_0>
    142a:	040c07b7          	lui	a5,0x40c0
    142e:	1171                	addi	sp,sp,-4
    1430:	07b5                	addi	a5,a5,13
    1432:	c03e                	sw	a5,0(sp)
    1434:	4481                	li	s1,0
    1436:	20000437          	lui	s0,0x20000
    143a:	005c                	addi	a5,sp,4
    143c:	97a6                	add	a5,a5,s1
    143e:	ffc7c503          	lbu	a0,-4(a5) # 40bfffc <_data_lma+0x40bcc44>
    1442:	0ff00793          	li	a5,255
    1446:	02f51163          	bne	a0,a5,1468 <choose_your_name+0x42>
    144a:	803ff0ef          	jal	ra,c4c <clear>
    144e:	00dbc537          	lui	a0,0xdbc
    1452:	a0050513          	addi	a0,a0,-1536 # dbba00 <_data_lma+0xdb8648>
    1456:	a5aff0ef          	jal	ra,6b0 <DelaySysTick>
    145a:	0485                	addi	s1,s1,1
    145c:	4791                	li	a5,4
    145e:	fcf49ee3          	bne	s1,a5,143a <choose_your_name+0x14>
    1462:	0111                	addi	sp,sp,4
    1464:	ce7fe06f          	j	14a <__riscv_restore_0>
    1468:	00151793          	slli	a5,a0,0x1
    146c:	97aa                	add	a5,a5,a0
    146e:	0a040713          	addi	a4,s0,160 # 200000a0 <letters_color>
    1472:	973e                	add	a4,a4,a5
    1474:	331c                	lbu	a5,1(a4)
    1476:	230c                	lbu	a1,0(a4)
    1478:	1f400613          	li	a2,500
    147c:	07a2                	slli	a5,a5,0x8
    147e:	8fcd                	or	a5,a5,a1
    1480:	232c                	lbu	a1,2(a4)
    1482:	05c2                	slli	a1,a1,0x10
    1484:	8ddd                	or	a1,a1,a5
    1486:	3de9                	jal	1360 <display_letter>
    1488:	bfc9                	j	145a <choose_your_name+0x34>

0000148a <save_currentScore_EEPROM>:
    148a:	cb7fe2ef          	jal	t0,140 <__riscv_save_0>
    148e:	8231c683          	lbu	a3,-2013(gp) # 2000018b <current_user_id>
    1492:	1111                	addi	sp,sp,-28
    1494:	82318713          	addi	a4,gp,-2013 # 2000018b <current_user_id>
    1498:	00269793          	slli	a5,a3,0x2
    149c:	97b6                	add	a5,a5,a3
    149e:	00279313          	slli	t1,a5,0x2
    14a2:	c02a                	sw	a0,0(sp)
    14a4:	00930793          	addi	a5,t1,9
    14a8:	4401                	li	s0,0
    14aa:	4381                	li	t2,0
    14ac:	0ff00293          	li	t0,255
    14b0:	4481                	li	s1,0
    14b2:	c23a                	sw	a4,4(sp)
    14b4:	4705                	li	a4,1
    14b6:	85be                	mv	a1,a5
    14b8:	0834                	addi	a3,sp,24
    14ba:	4605                	li	a2,1
    14bc:	05200513          	li	a0,82
    14c0:	ca1e                	sw	t2,20(sp)
    14c2:	c816                	sw	t0,16(sp)
    14c4:	c61a                	sw	t1,12(sp)
    14c6:	c43e                	sw	a5,8(sp)
    14c8:	d52ff0ef          	jal	ra,a1a <i2c_read>
    14cc:	01814703          	lbu	a4,24(sp)
    14d0:	47a2                	lw	a5,8(sp)
    14d2:	4332                	lw	t1,12(sp)
    14d4:	42c2                	lw	t0,16(sp)
    14d6:	43d2                	lw	t2,20(sp)
    14d8:	e319                	bnez	a4,14de <save_currentScore_EEPROM+0x54>
    14da:	06038c63          	beqz	t2,1552 <save_currentScore_EEPROM+0xc8>
    14de:	00577463          	bgeu	a4,t0,14e6 <save_currentScore_EEPROM+0x5c>
    14e2:	82ba                	mv	t0,a4
    14e4:	84a2                	mv	s1,s0
    14e6:	0405                	addi	s0,s0,1
    14e8:	0789                	addi	a5,a5,2
    14ea:	07c2                	slli	a5,a5,0x10
    14ec:	0ff47413          	andi	s0,s0,255
    14f0:	4729                	li	a4,10
    14f2:	83c1                	srli	a5,a5,0x10
    14f4:	fce410e3          	bne	s0,a4,14b4 <save_currentScore_EEPROM+0x2a>
    14f8:	00039563          	bnez	t2,1502 <save_currentScore_EEPROM+0x78>
    14fc:	4782                	lw	a5,0(sp)
    14fe:	04f2f763          	bgeu	t0,a5,154c <save_currentScore_EEPROM+0xc2>
    1502:	00830793          	addi	a5,t1,8
    1506:	00149413          	slli	s0,s1,0x1
    150a:	943e                	add	s0,s0,a5
    150c:	0442                	slli	s0,s0,0x10
    150e:	4782                	lw	a5,0(sp)
    1510:	8041                	srli	s0,s0,0x10
    1512:	4709                	li	a4,2
    1514:	0834                	addi	a3,sp,24
    1516:	4605                	li	a2,1
    1518:	85a2                	mv	a1,s0
    151a:	05200513          	li	a0,82
    151e:	00f10ca3          	sb	a5,25(sp)
    1522:	00910c23          	sb	s1,24(sp)
    1526:	b94ff0ef          	jal	ra,8ba <i2c_write>
    152a:	00023537          	lui	a0,0x23
    152e:	28050513          	addi	a0,a0,640 # 23280 <_data_lma+0x1fec8>
    1532:	97eff0ef          	jal	ra,6b0 <DelaySysTick>
    1536:	4792                	lw	a5,4(sp)
    1538:	4602                	lw	a2,0(sp)
    153a:	00003537          	lui	a0,0x3
    153e:	238c                	lbu	a1,0(a5)
    1540:	8722                	mv	a4,s0
    1542:	86a6                	mv	a3,s1
    1544:	24850513          	addi	a0,a0,584 # 3248 <font_chars+0x1f8>
    1548:	880ff0ef          	jal	ra,5c8 <printf>
    154c:	0171                	addi	sp,sp,28
    154e:	bfdfe06f          	j	14a <__riscv_restore_0>
    1552:	84a2                	mv	s1,s0
    1554:	4385                	li	t2,1
    1556:	bf41                	j	14e6 <save_currentScore_EEPROM+0x5c>

00001558 <save_id>:
    1558:	be9fe2ef          	jal	t0,140 <__riscv_save_0>
    155c:	1171                	addi	sp,sp,-4
    155e:	00310693          	addi	a3,sp,3
    1562:	4705                	li	a4,1
    1564:	4605                	li	a2,1
    1566:	81c8                	sb	a0,3(sp)
    1568:	20000593          	li	a1,512
    156c:	05200513          	li	a0,82
    1570:	b4aff0ef          	jal	ra,8ba <i2c_write>
    1574:	00023537          	lui	a0,0x23
    1578:	28050513          	addi	a0,a0,640 # 23280 <_data_lma+0x1fec8>
    157c:	934ff0ef          	jal	ra,6b0 <DelaySysTick>
    1580:	818c                	lbu	a1,3(sp)
    1582:	00003537          	lui	a0,0x3
    1586:	27850513          	addi	a0,a0,632 # 3278 <font_chars+0x228>
    158a:	83eff0ef          	jal	ra,5c8 <printf>
    158e:	0111                	addi	sp,sp,4
    1590:	bbbfe06f          	j	14a <__riscv_restore_0>

00001594 <load_id>:
    1594:	badfe2ef          	jal	t0,140 <__riscv_save_0>
    1598:	1171                	addi	sp,sp,-4
    159a:	00310693          	addi	a3,sp,3
    159e:	4705                	li	a4,1
    15a0:	4605                	li	a2,1
    15a2:	20000593          	li	a1,512
    15a6:	05200513          	li	a0,82
    15aa:	000101a3          	sb	zero,3(sp)
    15ae:	c6cff0ef          	jal	ra,a1a <i2c_read>
    15b2:	818c                	lbu	a1,3(sp)
    15b4:	00003537          	lui	a0,0x3
    15b8:	19050513          	addi	a0,a0,400 # 3190 <font_chars+0x140>
    15bc:	80cff0ef          	jal	ra,5c8 <printf>
    15c0:	8188                	lbu	a0,3(sp)
    15c2:	0111                	addi	sp,sp,4
    15c4:	b87fe06f          	j	14a <__riscv_restore_0>

000015c8 <save_name>:
    15c8:	4789                	li	a5,2
    15ca:	00a7e863          	bltu	a5,a0,15da <save_name+0x12>
    15ce:	b73fe2ef          	jal	t0,140 <__riscv_save_0>
    15d2:	bfeff0ef          	jal	ra,9d0 <save_name.part.8>
    15d6:	b75fe06f          	j	14a <__riscv_restore_0>
    15da:	8082                	ret

000015dc <create_name>:
    15dc:	b65fe2ef          	jal	t0,140 <__riscv_save_0>
    15e0:	1131                	addi	sp,sp,-20
    15e2:	4511                	li	a0,4
    15e4:	1fe010ef          	jal	ra,27e2 <malloc>
    15e8:	96a1a423          	sw	a0,-1688(gp) # 200002d0 <new_name>
    15ec:	0e050163          	beqz	a0,16ce <create_name+0xf2>
    15f0:	200007b7          	lui	a5,0x20000
    15f4:	0a078793          	addi	a5,a5,160 # 200000a0 <letters_color>
    15f8:	96818413          	addi	s0,gp,-1688 # 200002d0 <new_name>
    15fc:	c802                	sw	zero,16(sp)
    15fe:	c002                	sw	zero,0(sp)
    1600:	4481                	li	s1,0
    1602:	c63e                	sw	a5,12(sp)
    1604:	4732                	lw	a4,12(sp)
    1606:	0ff4f793          	andi	a5,s1,255
    160a:	c43e                	sw	a5,8(sp)
    160c:	00149793          	slli	a5,s1,0x1
    1610:	97a6                	add	a5,a5,s1
    1612:	97ba                	add	a5,a5,a4
    1614:	3398                	lbu	a4,1(a5)
    1616:	238c                	lbu	a1,0(a5)
    1618:	25800613          	li	a2,600
    161c:	0722                	slli	a4,a4,0x8
    161e:	8f4d                	or	a4,a4,a1
    1620:	23ac                	lbu	a1,2(a5)
    1622:	0ff4f513          	andi	a0,s1,255
    1626:	05c2                	slli	a1,a1,0x10
    1628:	8dd9                	or	a1,a1,a4
    162a:	3b1d                	jal	1360 <display_letter>
    162c:	000017b7          	lui	a5,0x1
    1630:	d0878513          	addi	a0,a5,-760 # d08 <ADC_read_smallboard>
    1634:	4595                	li	a1,5
    1636:	edcff0ef          	jal	ra,d12 <multiple_ADC_reads>
    163a:	f2cff0ef          	jal	ra,d66 <JOY_check_button>
    163e:	000017b7          	lui	a5,0x1
    1642:	575d                	li	a4,-9
    1644:	c23e                	sw	a5,4(sp)
    1646:	08e51e63          	bne	a0,a4,16e2 <create_name+0x106>
    164a:	4792                	lw	a5,4(sp)
    164c:	4595                	li	a1,5
    164e:	d0878513          	addi	a0,a5,-760 # d08 <ADC_read_smallboard>
    1652:	ec0ff0ef          	jal	ra,d12 <multiple_ADC_reads>
    1656:	f10ff0ef          	jal	ra,d66 <JOY_check_button>
    165a:	57dd                	li	a5,-9
    165c:	06f50c63          	beq	a0,a5,16d4 <create_name+0xf8>
    1660:	4702                	lw	a4,0(sp)
    1662:	401c                	lw	a5,0(s0)
    1664:	4481                	li	s1,0
    1666:	97ba                	add	a5,a5,a4
    1668:	4722                	lw	a4,8(sp)
    166a:	04170713          	addi	a4,a4,65 # 20000041 <_data_vma+0x41>
    166e:	a398                	sb	a4,0(a5)
    1670:	4702                	lw	a4,0(sp)
    1672:	085c                	addi	a5,sp,20
    1674:	97ba                	add	a5,a5,a4
    1676:	4722                	lw	a4,8(sp)
    1678:	fee78e23          	sb	a4,-4(a5)
    167c:	4782                	lw	a5,0(sp)
    167e:	0785                	addi	a5,a5,1
    1680:	c03e                	sw	a5,0(sp)
    1682:	4702                	lw	a4,0(sp)
    1684:	478d                	li	a5,3
    1686:	f6f71fe3          	bne	a4,a5,1604 <create_name+0x28>
    168a:	401c                	lw	a5,0(s0)
    168c:	000781a3          	sb	zero,3(a5)
    1690:	3711                	jal	1594 <load_id>
    1692:	82318493          	addi	s1,gp,-2013 # 2000018b <current_user_id>
    1696:	a088                	sb	a0,0(s1)
    1698:	4689                	li	a3,2
    169a:	0ca6ef63          	bltu	a3,a0,1778 <create_name+0x19c>
    169e:	400c                	lw	a1,0(s0)
    16a0:	3725                	jal	15c8 <save_name>
    16a2:	400c                	lw	a1,0(s0)
    16a4:	460d                	li	a2,3
    16a6:	82018513          	addi	a0,gp,-2016 # 20000188 <current_name>
    16aa:	d65fe0ef          	jal	ra,40e <strncpy>
    16ae:	2088                	lbu	a0,0(s1)
    16b0:	0505                	addi	a0,a0,1
    16b2:	0ff57513          	andi	a0,a0,255
    16b6:	a088                	sb	a0,0(s1)
    16b8:	3545                	jal	1558 <save_id>
    16ba:	200007b7          	lui	a5,0x20000
    16be:	0f07a603          	lw	a2,240(a5) # 200000f0 <scoreColor>
    16c2:	0808                	addi	a0,sp,16
    16c4:	1f400693          	li	a3,500
    16c8:	458d                	li	a1,3
    16ca:	39f9                	jal	13a8 <display_full_message>
    16cc:	4008                	lw	a0,0(s0)
    16ce:	0151                	addi	sp,sp,20
    16d0:	a7bfe06f          	j	14a <__riscv_restore_0>
    16d4:	000ea537          	lui	a0,0xea
    16d8:	60050513          	addi	a0,a0,1536 # ea600 <_data_lma+0xe7248>
    16dc:	fd5fe0ef          	jal	ra,6b0 <DelaySysTick>
    16e0:	b7ad                	j	164a <create_name+0x6e>
    16e2:	4792                	lw	a5,4(sp)
    16e4:	4595                	li	a1,5
    16e6:	d0878513          	addi	a0,a5,-760
    16ea:	e28ff0ef          	jal	ra,d12 <multiple_ADC_reads>
    16ee:	e78ff0ef          	jal	ra,d66 <JOY_check_button>
    16f2:	57f9                	li	a5,-2
    16f4:	04f51163          	bne	a0,a5,1736 <create_name+0x15a>
    16f8:	4792                	lw	a5,4(sp)
    16fa:	4595                	li	a1,5
    16fc:	d0878513          	addi	a0,a5,-760
    1700:	e12ff0ef          	jal	ra,d12 <multiple_ADC_reads>
    1704:	e62ff0ef          	jal	ra,d66 <JOY_check_button>
    1708:	57f9                	li	a5,-2
    170a:	00f50f63          	beq	a0,a5,1728 <create_name+0x14c>
    170e:	45e9                	li	a1,26
    1710:	00148513          	addi	a0,s1,1
    1714:	ab1fe0ef          	jal	ra,1c4 <__modsi3>
    1718:	84aa                	mv	s1,a0
    171a:	00494537          	lui	a0,0x494
    171e:	e0050513          	addi	a0,a0,-512 # 493e00 <_data_lma+0x490a48>
    1722:	f8ffe0ef          	jal	ra,6b0 <DelaySysTick>
    1726:	bfb1                	j	1682 <create_name+0xa6>
    1728:	000ea537          	lui	a0,0xea
    172c:	60050513          	addi	a0,a0,1536 # ea600 <_data_lma+0xe7248>
    1730:	f81fe0ef          	jal	ra,6b0 <DelaySysTick>
    1734:	b7d1                	j	16f8 <create_name+0x11c>
    1736:	4792                	lw	a5,4(sp)
    1738:	4595                	li	a1,5
    173a:	d0878513          	addi	a0,a5,-760
    173e:	dd4ff0ef          	jal	ra,d12 <multiple_ADC_reads>
    1742:	e24ff0ef          	jal	ra,d66 <JOY_check_button>
    1746:	57f5                	li	a5,-3
    1748:	fcf519e3          	bne	a0,a5,171a <create_name+0x13e>
    174c:	4792                	lw	a5,4(sp)
    174e:	4595                	li	a1,5
    1750:	d0878513          	addi	a0,a5,-760
    1754:	dbeff0ef          	jal	ra,d12 <multiple_ADC_reads>
    1758:	e0eff0ef          	jal	ra,d66 <JOY_check_button>
    175c:	57f5                	li	a5,-3
    175e:	00f50663          	beq	a0,a5,176a <create_name+0x18e>
    1762:	45e9                	li	a1,26
    1764:	01948513          	addi	a0,s1,25
    1768:	b775                	j	1714 <create_name+0x138>
    176a:	000ea537          	lui	a0,0xea
    176e:	60050513          	addi	a0,a0,1536 # ea600 <_data_lma+0xe7248>
    1772:	f3ffe0ef          	jal	ra,6b0 <DelaySysTick>
    1776:	bfd9                	j	174c <create_name+0x170>
    1778:	400c                	lw	a1,0(s0)
    177a:	4501                	li	a0,0
    177c:	00048023          	sb	zero,0(s1)
    1780:	a50ff0ef          	jal	ra,9d0 <save_name.part.8>
    1784:	400c                	lw	a1,0(s0)
    1786:	460d                	li	a2,3
    1788:	82018513          	addi	a0,gp,-2016 # 20000188 <current_name>
    178c:	c83fe0ef          	jal	ra,40e <strncpy>
    1790:	4705                	li	a4,1
    1792:	a098                	sb	a4,0(s1)
    1794:	4505                	li	a0,1
    1796:	b70d                	j	16b8 <create_name+0xdc>

00001798 <load_name>:
    1798:	4789                	li	a5,2
    179a:	00a7f563          	bgeu	a5,a0,17a4 <load_name+0xc>
    179e:	00058023          	sb	zero,0(a1)
    17a2:	8082                	ret
    17a4:	99dfe2ef          	jal	t0,140 <__riscv_save_0>
    17a8:	842e                	mv	s0,a1
    17aa:	00151593          	slli	a1,a0,0x1
    17ae:	1171                	addi	sp,sp,-4
    17b0:	95aa                	add	a1,a1,a0
    17b2:	868a                	mv	a3,sp
    17b4:	470d                	li	a4,3
    17b6:	84aa                	mv	s1,a0
    17b8:	4605                	li	a2,1
    17ba:	10058593          	addi	a1,a1,256
    17be:	05200513          	li	a0,82
    17c2:	a58ff0ef          	jal	ra,a1a <i2c_read>
    17c6:	858a                	mv	a1,sp
    17c8:	460d                	li	a2,3
    17ca:	8522                	mv	a0,s0
    17cc:	c43fe0ef          	jal	ra,40e <strncpy>
    17d0:	00003537          	lui	a0,0x3
    17d4:	000401a3          	sb	zero,3(s0)
    17d8:	8626                	mv	a2,s1
    17da:	85a2                	mv	a1,s0
    17dc:	1a850513          	addi	a0,a0,424 # 31a8 <font_chars+0x158>
    17e0:	de9fe0ef          	jal	ra,5c8 <printf>
    17e4:	0111                	addi	sp,sp,4
    17e6:	965fe06f          	j	14a <__riscv_restore_0>

000017ea <available_names>:
    17ea:	957fe2ef          	jal	t0,140 <__riscv_save_0>
    17ee:	84aa                	mv	s1,a0
    17f0:	4511                	li	a0,4
    17f2:	7f1000ef          	jal	ra,27e2 <malloc>
    17f6:	85aa                	mv	a1,a0
    17f8:	842a                	mv	s0,a0
    17fa:	8526                	mv	a0,s1
    17fc:	3f71                	jal	1798 <load_name>
    17fe:	200006b7          	lui	a3,0x20000
    1802:	4481                	li	s1,0
    1804:	0a068693          	addi	a3,a3,160 # 200000a0 <letters_color>
    1808:	009407b3          	add	a5,s0,s1
    180c:	2388                	lbu	a0,0(a5)
    180e:	1f400613          	li	a2,500
    1812:	0485                	addi	s1,s1,1
    1814:	fbf50513          	addi	a0,a0,-65
    1818:	0ff57513          	andi	a0,a0,255
    181c:	00151793          	slli	a5,a0,0x1
    1820:	97aa                	add	a5,a5,a0
    1822:	97b6                	add	a5,a5,a3
    1824:	3398                	lbu	a4,1(a5)
    1826:	238c                	lbu	a1,0(a5)
    1828:	0722                	slli	a4,a4,0x8
    182a:	8f4d                	or	a4,a4,a1
    182c:	23ac                	lbu	a1,2(a5)
    182e:	05c2                	slli	a1,a1,0x10
    1830:	8dd9                	or	a1,a1,a4
    1832:	b2fff0ef          	jal	ra,1360 <display_letter>
    1836:	20000737          	lui	a4,0x20000
    183a:	4791                	li	a5,4
    183c:	0a070693          	addi	a3,a4,160 # 200000a0 <letters_color>
    1840:	fcf494e3          	bne	s1,a5,1808 <available_names+0x1e>
    1844:	907fe06f          	j	14a <__riscv_restore_0>

00001848 <get_current_user_name>:
    1848:	8f9fe2ef          	jal	t0,140 <__riscv_save_0>
    184c:	8231c783          	lbu	a5,-2013(gp) # 2000018b <current_user_id>
    1850:	eb89                	bnez	a5,1862 <get_current_user_name+0x1a>
    1852:	000035b7          	lui	a1,0x3
    1856:	14c58593          	addi	a1,a1,332 # 314c <font_chars+0xfc>
    185a:	ba5fe0ef          	jal	ra,3fe <strcpy>
    185e:	8edfe06f          	j	14a <__riscv_restore_0>
    1862:	85aa                	mv	a1,a0
    1864:	853e                	mv	a0,a5
    1866:	3f0d                	jal	1798 <load_name>
    1868:	bfdd                	j	185e <get_current_user_name+0x16>

0000186a <load_scores>:
    186a:	8d7fe2ef          	jal	t0,140 <__riscv_save_0>
    186e:	97018793          	addi	a5,gp,-1680 # 200002d8 <scoreHistory>
    1872:	0007a023          	sw	zero,0(a5)
    1876:	0007a223          	sw	zero,4(a5)
    187a:	00079423          	sh	zero,8(a5)
    187e:	8231c783          	lbu	a5,-2013(gp) # 2000018b <current_user_id>
    1882:	80018fa3          	sb	zero,-2017(gp) # 20000187 <currentScoreIndex>
    1886:	00279413          	slli	s0,a5,0x2
    188a:	943e                	add	s0,s0,a5
    188c:	040a                	slli	s0,s0,0x2
    188e:	1161                	addi	sp,sp,-8
    1890:	0421                	addi	s0,s0,8
    1892:	4781                	li	a5,0
    1894:	81f18493          	addi	s1,gp,-2017 # 20000187 <currentScoreIndex>
    1898:	4709                	li	a4,2
    189a:	0054                	addi	a3,sp,4
    189c:	4605                	li	a2,1
    189e:	85a2                	mv	a1,s0
    18a0:	05200513          	li	a0,82
    18a4:	c03e                	sw	a5,0(sp)
    18a6:	974ff0ef          	jal	ra,a1a <i2c_read>
    18aa:	4782                	lw	a5,0(sp)
    18ac:	8214                	lbu	a3,4(sp)
    18ae:	97018293          	addi	t0,gp,-1680 # 200002d8 <scoreHistory>
    18b2:	0ff7f713          	andi	a4,a5,255
    18b6:	82318313          	addi	t1,gp,-2013 # 2000018b <current_user_id>
    18ba:	00e69a63          	bne	a3,a4,18ce <load_scores+0x64>
    18be:	8298                	lbu	a4,5(sp)
    18c0:	c719                	beqz	a4,18ce <load_scores+0x64>
    18c2:	00f286b3          	add	a3,t0,a5
    18c6:	a298                	sb	a4,0(a3)
    18c8:	2098                	lbu	a4,0(s1)
    18ca:	0705                	addi	a4,a4,1
    18cc:	a098                	sb	a4,0(s1)
    18ce:	0409                	addi	s0,s0,2
    18d0:	0442                	slli	s0,s0,0x10
    18d2:	0785                	addi	a5,a5,1
    18d4:	4729                	li	a4,10
    18d6:	8041                	srli	s0,s0,0x10
    18d8:	fce790e3          	bne	a5,a4,1898 <load_scores+0x2e>
    18dc:	00034603          	lbu	a2,0(t1)
    18e0:	208c                	lbu	a1,0(s1)
    18e2:	00003537          	lui	a0,0x3
    18e6:	1c850513          	addi	a0,a0,456 # 31c8 <font_chars+0x178>
    18ea:	cdffe0ef          	jal	ra,5c8 <printf>
    18ee:	0121                	addi	sp,sp,8
    18f0:	85bfe06f          	j	14a <__riscv_restore_0>

000018f4 <reveal_all_scores>:
    18f4:	84dfe2ef          	jal	t0,140 <__riscv_save_0>
    18f8:	1131                	addi	sp,sp,-20
    18fa:	3f85                	jal	186a <load_scores>
    18fc:	b50ff0ef          	jal	ra,c4c <clear>
    1900:	40011537          	lui	a0,0x40011
    1904:	0c000693          	li	a3,192
    1908:	8a818613          	addi	a2,gp,-1880 # 20000210 <led_array>
    190c:	4589                	li	a1,2
    190e:	80050513          	addi	a0,a0,-2048 # 40010800 <__global_pointer$+0x2000fe98>
    1912:	e48ff0ef          	jal	ra,f5a <WS2812BSimpleSend>
    1916:	016e3537          	lui	a0,0x16e3
    191a:	60050513          	addi	a0,a0,1536 # 16e3600 <_data_lma+0x16e0248>
    191e:	d93fe0ef          	jal	ra,6b0 <DelaySysTick>
    1922:	200007b7          	lui	a5,0x20000
    1926:	06c78713          	addi	a4,a5,108 # 2000006c <font_list>
    192a:	06c78793          	addi	a5,a5,108
    192e:	c23e                	sw	a5,4(sp)
    1930:	97018793          	addi	a5,gp,-1680 # 200002d8 <scoreHistory>
    1934:	c43a                	sw	a4,8(sp)
    1936:	4481                	li	s1,0
    1938:	c022                	sw	s0,0(sp)
    193a:	c83e                	sw	a5,16(sp)
    193c:	47c2                	lw	a5,16(sp)
    193e:	97a6                	add	a5,a5,s1
    1940:	c63e                	sw	a5,12(sp)
    1942:	239c                	lbu	a5,0(a5)
    1944:	0e078463          	beqz	a5,1a2c <reveal_all_scores+0x138>
    1948:	b04ff0ef          	jal	ra,c4c <clear>
    194c:	20000437          	lui	s0,0x20000
    1950:	0f042583          	lw	a1,240(s0) # 200000f0 <scoreColor>
    1954:	03f00513          	li	a0,63
    1958:	0f040413          	addi	s0,s0,240
    195c:	a3cff0ef          	jal	ra,b98 <set_color>
    1960:	47a5                	li	a5,9
    1962:	0ef48d63          	beq	s1,a5,1a5c <reveal_all_scores+0x168>
    1966:	47a2                	lw	a5,8(sp)
    1968:	400c                	lw	a1,0(s0)
    196a:	4601                	li	a2,0
    196c:	43c8                	lw	a0,4(a5)
    196e:	b06ff0ef          	jal	ra,c74 <font_draw>
    1972:	4782                	lw	a5,0(sp)
    1974:	40011537          	lui	a0,0x40011
    1978:	0c000693          	li	a3,192
    197c:	8a818613          	addi	a2,gp,-1880 # 20000210 <led_array>
    1980:	4589                	li	a1,2
    1982:	80050513          	addi	a0,a0,-2048 # 40010800 <__global_pointer$+0x2000fe98>
    1986:	dd4ff0ef          	jal	ra,f5a <WS2812BSimpleSend>
    198a:	02dc7537          	lui	a0,0x2dc7
    198e:	c0050513          	addi	a0,a0,-1024 # 2dc6c00 <_data_lma+0x2dc3848>
    1992:	d1ffe0ef          	jal	ra,6b0 <DelaySysTick>
    1996:	ab6ff0ef          	jal	ra,c4c <clear>
    199a:	47b2                	lw	a5,12(sp)
    199c:	45a9                	li	a1,10
    199e:	2398                	lbu	a4,0(a5)
    19a0:	853a                	mv	a0,a4
    19a2:	c63a                	sw	a4,12(sp)
    19a4:	ffcfe0ef          	jal	ra,1a0 <__umodsi3>
    19a8:	4732                	lw	a4,12(sp)
    19aa:	46a5                	li	a3,9
    19ac:	0ff57793          	andi	a5,a0,255
    19b0:	02e6f263          	bgeu	a3,a4,19d4 <reveal_all_scores+0xe0>
    19b4:	45a9                	li	a1,10
    19b6:	853a                	mv	a0,a4
    19b8:	c63e                	sw	a5,12(sp)
    19ba:	fbafe0ef          	jal	ra,174 <__udivsi3>
    19be:	4792                	lw	a5,4(sp)
    19c0:	0ff57513          	andi	a0,a0,255
    19c4:	050a                	slli	a0,a0,0x2
    19c6:	953e                	add	a0,a0,a5
    19c8:	400c                	lw	a1,0(s0)
    19ca:	4108                	lw	a0,0(a0)
    19cc:	4611                	li	a2,4
    19ce:	aa6ff0ef          	jal	ra,c74 <font_draw>
    19d2:	47b2                	lw	a5,12(sp)
    19d4:	4712                	lw	a4,4(sp)
    19d6:	078a                	slli	a5,a5,0x2
    19d8:	400c                	lw	a1,0(s0)
    19da:	97ba                	add	a5,a5,a4
    19dc:	4388                	lw	a0,0(a5)
    19de:	4601                	li	a2,0
    19e0:	40011437          	lui	s0,0x40011
    19e4:	a90ff0ef          	jal	ra,c74 <font_draw>
    19e8:	4782                	lw	a5,0(sp)
    19ea:	0c000693          	li	a3,192
    19ee:	4589                	li	a1,2
    19f0:	8a818613          	addi	a2,gp,-1880 # 20000210 <led_array>
    19f4:	80040513          	addi	a0,s0,-2048 # 40010800 <__global_pointer$+0x2000fe98>
    19f8:	d62ff0ef          	jal	ra,f5a <WS2812BSimpleSend>
    19fc:	044aa537          	lui	a0,0x44aa
    1a00:	20050513          	addi	a0,a0,512 # 44aa200 <_data_lma+0x44a6e48>
    1a04:	cadfe0ef          	jal	ra,6b0 <DelaySysTick>
    1a08:	a44ff0ef          	jal	ra,c4c <clear>
    1a0c:	4782                	lw	a5,0(sp)
    1a0e:	80040513          	addi	a0,s0,-2048
    1a12:	0c000693          	li	a3,192
    1a16:	8a818613          	addi	a2,gp,-1880 # 20000210 <led_array>
    1a1a:	4589                	li	a1,2
    1a1c:	d3eff0ef          	jal	ra,f5a <WS2812BSimpleSend>
    1a20:	00dbc537          	lui	a0,0xdbc
    1a24:	a0050513          	addi	a0,a0,-1536 # dbba00 <_data_lma+0xdb8648>
    1a28:	c89fe0ef          	jal	ra,6b0 <DelaySysTick>
    1a2c:	47a2                	lw	a5,8(sp)
    1a2e:	0485                	addi	s1,s1,1
    1a30:	0791                	addi	a5,a5,4
    1a32:	c43e                	sw	a5,8(sp)
    1a34:	47a9                	li	a5,10
    1a36:	f0f493e3          	bne	s1,a5,193c <reveal_all_scores+0x48>
    1a3a:	a12ff0ef          	jal	ra,c4c <clear>
    1a3e:	4782                	lw	a5,0(sp)
    1a40:	40011537          	lui	a0,0x40011
    1a44:	0c000693          	li	a3,192
    1a48:	8a818613          	addi	a2,gp,-1880 # 20000210 <led_array>
    1a4c:	4589                	li	a1,2
    1a4e:	80050513          	addi	a0,a0,-2048 # 40010800 <__global_pointer$+0x2000fe98>
    1a52:	d08ff0ef          	jal	ra,f5a <WS2812BSimpleSend>
    1a56:	0151                	addi	sp,sp,20
    1a58:	ef2fe06f          	j	14a <__riscv_restore_0>
    1a5c:	4792                	lw	a5,4(sp)
    1a5e:	400c                	lw	a1,0(s0)
    1a60:	4611                	li	a2,4
    1a62:	43c8                	lw	a0,4(a5)
    1a64:	a10ff0ef          	jal	ra,c74 <font_draw>
    1a68:	4792                	lw	a5,4(sp)
    1a6a:	4601                	li	a2,0
    1a6c:	400c                	lw	a1,0(s0)
    1a6e:	4388                	lw	a0,0(a5)
    1a70:	bdfd                	j	196e <reveal_all_scores+0x7a>

00001a72 <show_name_and_highest_score>:
    1a72:	ecefe2ef          	jal	t0,140 <__riscv_save_0>
    1a76:	1101                	addi	sp,sp,-32
    1a78:	00011823          	sh	zero,16(sp)
    1a7c:	00010923          	sb	zero,18(sp)
    1a80:	081c                	addi	a5,sp,16
    1a82:	4401                	li	s0,0
    1a84:	4481                	li	s1,0
    1a86:	4301                	li	t1,0
    1a88:	00141593          	slli	a1,s0,0x1
    1a8c:	0ff47613          	andi	a2,s0,255
    1a90:	c63e                	sw	a5,12(sp)
    1a92:	95a2                	add	a1,a1,s0
    1a94:	085c                	addi	a5,sp,20
    1a96:	95be                	add	a1,a1,a5
    1a98:	8532                	mv	a0,a2
    1a9a:	c41a                	sw	t1,8(sp)
    1a9c:	c032                	sw	a2,0(sp)
    1a9e:	39ed                	jal	1798 <load_name>
    1aa0:	82318713          	addi	a4,gp,-2013 # 2000018b <current_user_id>
    1aa4:	2308                	lbu	a0,0(a4)
    1aa6:	4602                	lw	a2,0(sp)
    1aa8:	c22a                	sw	a0,4(sp)
    1aaa:	a310                	sb	a2,0(a4)
    1aac:	3b7d                	jal	186a <load_scores>
    1aae:	97018693          	addi	a3,gp,-1680 # 200002d8 <scoreHistory>
    1ab2:	4322                	lw	t1,8(sp)
    1ab4:	47b2                	lw	a5,12(sp)
    1ab6:	4512                	lw	a0,4(sp)
    1ab8:	4602                	lw	a2,0(sp)
    1aba:	4701                	li	a4,0
    1abc:	82318293          	addi	t0,gp,-2013 # 2000018b <current_user_id>
    1ac0:	43a9                	li	t2,10
    1ac2:	00e685b3          	add	a1,a3,a4
    1ac6:	218c                	lbu	a1,0(a1)
    1ac8:	0007c083          	lbu	ra,0(a5)
    1acc:	00b0f363          	bgeu	ra,a1,1ad2 <show_name_and_highest_score+0x60>
    1ad0:	a38c                	sb	a1,0(a5)
    1ad2:	0705                	addi	a4,a4,1
    1ad4:	fe7717e3          	bne	a4,t2,1ac2 <show_name_and_highest_score+0x50>
    1ad8:	2398                	lbu	a4,0(a5)
    1ada:	00e4f463          	bgeu	s1,a4,1ae2 <show_name_and_highest_score+0x70>
    1ade:	84ba                	mv	s1,a4
    1ae0:	8332                	mv	t1,a2
    1ae2:	00a28023          	sb	a0,0(t0)
    1ae6:	0405                	addi	s0,s0,1
    1ae8:	470d                	li	a4,3
    1aea:	0785                	addi	a5,a5,1
    1aec:	f8e41ee3          	bne	s0,a4,1a88 <show_name_and_highest_score+0x16>
    1af0:	c01a                	sw	t1,0(sp)
    1af2:	95aff0ef          	jal	ra,c4c <clear>
    1af6:	40011537          	lui	a0,0x40011
    1afa:	0c000693          	li	a3,192
    1afe:	8a818613          	addi	a2,gp,-1880 # 20000210 <led_array>
    1b02:	4589                	li	a1,2
    1b04:	80050513          	addi	a0,a0,-2048 # 40010800 <__global_pointer$+0x2000fe98>
    1b08:	c52ff0ef          	jal	ra,f5a <WS2812BSimpleSend>
    1b0c:	016e3537          	lui	a0,0x16e3
    1b10:	60050513          	addi	a0,a0,1536 # 16e3600 <_data_lma+0x16e0248>
    1b14:	b9dfe0ef          	jal	ra,6b0 <DelaySysTick>
    1b18:	4302                	lw	t1,0(sp)
    1b1a:	200006b7          	lui	a3,0x20000
    1b1e:	4701                	li	a4,0
    1b20:	00131793          	slli	a5,t1,0x1
    1b24:	933e                	add	t1,t1,a5
    1b26:	0a068693          	addi	a3,a3,160 # 200000a0 <letters_color>
    1b2a:	006707b3          	add	a5,a4,t1
    1b2e:	c03a                	sw	a4,0(sp)
    1b30:	0858                	addi	a4,sp,20
    1b32:	97ba                	add	a5,a5,a4
    1b34:	2388                	lbu	a0,0(a5)
    1b36:	c21a                	sw	t1,4(sp)
    1b38:	1f400613          	li	a2,500
    1b3c:	fbf50513          	addi	a0,a0,-65
    1b40:	0ff57513          	andi	a0,a0,255
    1b44:	00151793          	slli	a5,a0,0x1
    1b48:	97aa                	add	a5,a5,a0
    1b4a:	97b6                	add	a5,a5,a3
    1b4c:	0017c283          	lbu	t0,1(a5)
    1b50:	238c                	lbu	a1,0(a5)
    1b52:	02a2                	slli	t0,t0,0x8
    1b54:	00b2e2b3          	or	t0,t0,a1
    1b58:	23ac                	lbu	a1,2(a5)
    1b5a:	05c2                	slli	a1,a1,0x10
    1b5c:	0055e5b3          	or	a1,a1,t0
    1b60:	801ff0ef          	jal	ra,1360 <display_letter>
    1b64:	016e3537          	lui	a0,0x16e3
    1b68:	60050513          	addi	a0,a0,1536 # 16e3600 <_data_lma+0x16e0248>
    1b6c:	b45fe0ef          	jal	ra,6b0 <DelaySysTick>
    1b70:	8dcff0ef          	jal	ra,c4c <clear>
    1b74:	4702                	lw	a4,0(sp)
    1b76:	200006b7          	lui	a3,0x20000
    1b7a:	478d                	li	a5,3
    1b7c:	0705                	addi	a4,a4,1
    1b7e:	0a068693          	addi	a3,a3,160 # 200000a0 <letters_color>
    1b82:	4312                	lw	t1,4(sp)
    1b84:	faf713e3          	bne	a4,a5,1b2a <show_name_and_highest_score+0xb8>
    1b88:	45a9                	li	a1,10
    1b8a:	8526                	mv	a0,s1
    1b8c:	e14fe0ef          	jal	ra,1a0 <__umodsi3>
    1b90:	0ff57793          	andi	a5,a0,255
    1b94:	c43e                	sw	a5,8(sp)
    1b96:	8b6ff0ef          	jal	ra,c4c <clear>
    1b9a:	20000737          	lui	a4,0x20000
    1b9e:	0f070713          	addi	a4,a4,240 # 200000f0 <scoreColor>
    1ba2:	c03a                	sw	a4,0(sp)
    1ba4:	20000737          	lui	a4,0x20000
    1ba8:	06c70713          	addi	a4,a4,108 # 2000006c <font_list>
    1bac:	47a5                	li	a5,9
    1bae:	c23a                	sw	a4,4(sp)
    1bb0:	0297f163          	bgeu	a5,s1,1bd2 <show_name_and_highest_score+0x160>
    1bb4:	45a9                	li	a1,10
    1bb6:	8526                	mv	a0,s1
    1bb8:	dbcfe0ef          	jal	ra,174 <__udivsi3>
    1bbc:	4792                	lw	a5,4(sp)
    1bbe:	0ff57513          	andi	a0,a0,255
    1bc2:	050a                	slli	a0,a0,0x2
    1bc4:	953e                	add	a0,a0,a5
    1bc6:	4782                	lw	a5,0(sp)
    1bc8:	4108                	lw	a0,0(a0)
    1bca:	4611                	li	a2,4
    1bcc:	438c                	lw	a1,0(a5)
    1bce:	8a6ff0ef          	jal	ra,c74 <font_draw>
    1bd2:	47a2                	lw	a5,8(sp)
    1bd4:	4712                	lw	a4,4(sp)
    1bd6:	4601                	li	a2,0
    1bd8:	078a                	slli	a5,a5,0x2
    1bda:	97ba                	add	a5,a5,a4
    1bdc:	4702                	lw	a4,0(sp)
    1bde:	4388                	lw	a0,0(a5)
    1be0:	400114b7          	lui	s1,0x40011
    1be4:	430c                	lw	a1,0(a4)
    1be6:	88eff0ef          	jal	ra,c74 <font_draw>
    1bea:	8a818613          	addi	a2,gp,-1880 # 20000210 <led_array>
    1bee:	0c000693          	li	a3,192
    1bf2:	4589                	li	a1,2
    1bf4:	80048513          	addi	a0,s1,-2048 # 40010800 <__global_pointer$+0x2000fe98>
    1bf8:	b62ff0ef          	jal	ra,f5a <WS2812BSimpleSend>
    1bfc:	05b8e537          	lui	a0,0x5b8e
    1c00:	80050513          	addi	a0,a0,-2048 # 5b8d800 <_data_lma+0x5b8a448>
    1c04:	aadfe0ef          	jal	ra,6b0 <DelaySysTick>
    1c08:	844ff0ef          	jal	ra,c4c <clear>
    1c0c:	0c000693          	li	a3,192
    1c10:	8a818613          	addi	a2,gp,-1880 # 20000210 <led_array>
    1c14:	4589                	li	a1,2
    1c16:	80048513          	addi	a0,s1,-2048
    1c1a:	b40ff0ef          	jal	ra,f5a <WS2812BSimpleSend>
    1c1e:	6105                	addi	sp,sp,32
    1c20:	d2afe06f          	j	14a <__riscv_restore_0>

00001c24 <is_storage_initialized>:
    1c24:	d1cfe2ef          	jal	t0,140 <__riscv_save_0>
    1c28:	1161                	addi	sp,sp,-8
    1c2a:	4721                	li	a4,8
    1c2c:	4581                	li	a1,0
    1c2e:	868a                	mv	a3,sp
    1c30:	4605                	li	a2,1
    1c32:	05200513          	li	a0,82
    1c36:	de5fe0ef          	jal	ra,a1a <i2c_read>
    1c3a:	00003737          	lui	a4,0x3
    1c3e:	4781                	li	a5,0
    1c40:	18470713          	addi	a4,a4,388 # 3184 <font_chars+0x134>
    1c44:	45a1                	li	a1,8
    1c46:	00e786b3          	add	a3,a5,a4
    1c4a:	00f10633          	add	a2,sp,a5
    1c4e:	2210                	lbu	a2,0(a2)
    1c50:	2294                	lbu	a3,0(a3)
    1c52:	00d61963          	bne	a2,a3,1c64 <is_storage_initialized+0x40>
    1c56:	0785                	addi	a5,a5,1
    1c58:	feb797e3          	bne	a5,a1,1c46 <is_storage_initialized+0x22>
    1c5c:	4505                	li	a0,1
    1c5e:	0121                	addi	sp,sp,8
    1c60:	ceafe06f          	j	14a <__riscv_restore_0>
    1c64:	4501                	li	a0,0
    1c66:	bfe5                	j	1c5e <is_storage_initialized+0x3a>

00001c68 <reset_storage>:
    1c68:	cd8fe2ef          	jal	t0,140 <__riscv_save_0>
    1c6c:	000036b7          	lui	a3,0x3
    1c70:	1171                	addi	sp,sp,-4
    1c72:	4721                	li	a4,8
    1c74:	18468693          	addi	a3,a3,388 # 3184 <font_chars+0x134>
    1c78:	4605                	li	a2,1
    1c7a:	4581                	li	a1,0
    1c7c:	05200513          	li	a0,82
    1c80:	c3bfe0ef          	jal	ra,8ba <i2c_write>
    1c84:	00023537          	lui	a0,0x23
    1c88:	28050513          	addi	a0,a0,640 # 23280 <_data_lma+0x1fec8>
    1c8c:	a25fe0ef          	jal	ra,6b0 <DelaySysTick>
    1c90:	4421                	li	s0,8
    1c92:	85a2                	mv	a1,s0
    1c94:	4705                	li	a4,1
    1c96:	868a                	mv	a3,sp
    1c98:	4605                	li	a2,1
    1c9a:	05200513          	li	a0,82
    1c9e:	00010023          	sb	zero,0(sp)
    1ca2:	c19fe0ef          	jal	ra,8ba <i2c_write>
    1ca6:	00023537          	lui	a0,0x23
    1caa:	28050513          	addi	a0,a0,640 # 23280 <_data_lma+0x1fec8>
    1cae:	0405                	addi	s0,s0,1
    1cb0:	a01fe0ef          	jal	ra,6b0 <DelaySysTick>
    1cb4:	0442                	slli	s0,s0,0x10
    1cb6:	8041                	srli	s0,s0,0x10
    1cb8:	20000793          	li	a5,512
    1cbc:	fcf41be3          	bne	s0,a5,1c92 <reset_storage+0x2a>
    1cc0:	00003537          	lui	a0,0x3
    1cc4:	23850513          	addi	a0,a0,568 # 3238 <font_chars+0x1e8>
    1cc8:	9bffe0ef          	jal	ra,686 <puts>
    1ccc:	0111                	addi	sp,sp,4
    1cce:	c7cfe06f          	j	14a <__riscv_restore_0>

00001cd2 <reset_all_scores>:
    1cd2:	c6efe2ef          	jal	t0,140 <__riscv_save_0>
    1cd6:	3f49                	jal	1c68 <reset_storage>
    1cd8:	00003537          	lui	a0,0x3
    1cdc:	21850513          	addi	a0,a0,536 # 3218 <font_chars+0x1c8>
    1ce0:	9a7fe0ef          	jal	ra,686 <puts>
    1ce4:	c66fe06f          	j	14a <__riscv_restore_0>

00001ce8 <init_storage>:
    1ce8:	c58fe2ef          	jal	t0,140 <__riscv_save_0>
    1cec:	3f25                	jal	1c24 <is_storage_initialized>
    1cee:	e911                	bnez	a0,1d02 <init_storage+0x1a>
    1cf0:	3fa5                	jal	1c68 <reset_storage>
    1cf2:	00003537          	lui	a0,0x3
    1cf6:	15450513          	addi	a0,a0,340 # 3154 <font_chars+0x104>
    1cfa:	98dfe0ef          	jal	ra,686 <puts>
    1cfe:	c4cfe06f          	j	14a <__riscv_restore_0>
    1d02:	00003537          	lui	a0,0x3
    1d06:	16850513          	addi	a0,a0,360 # 3168 <font_chars+0x118>
    1d0a:	bfc5                	j	1cfa <init_storage+0x12>

00001d0c <scroll_text>:
    1d0c:	c34fe2ef          	jal	t0,140 <__riscv_save_0>
    1d10:	7179                	addi	sp,sp,-48
    1d12:	0085d713          	srli	a4,a1,0x8
    1d16:	0105d793          	srli	a5,a1,0x10
    1d1a:	ce2e                	sw	a1,28(sp)
    1d1c:	0ff77713          	andi	a4,a4,255
    1d20:	0ff5f593          	andi	a1,a1,255
    1d24:	0ff7f793          	andi	a5,a5,255
    1d28:	842a                	mv	s0,a0
    1d2a:	e509                	bnez	a0,1d34 <scroll_text+0x28>
    1d2c:	00003437          	lui	s0,0x3
    1d30:	28c40413          	addi	s0,s0,652 # 328c <font_chars+0x23c>
    1d34:	02f10323          	sb	a5,38(sp)
    1d38:	00040783          	lb	a5,0(s0)
    1d3c:	02e102a3          	sb	a4,37(sp)
    1d40:	4721                	li	a4,8
    1d42:	02b10223          	sb	a1,36(sp)
    1d46:	c03a                	sw	a4,0(sp)
    1d48:	c39d                	beqz	a5,1d6e <scroll_text+0x62>
    1d4a:	4685                	li	a3,1
    1d4c:	8722                	mv	a4,s0
    1d4e:	8e81                	sub	a3,a3,s0
    1d50:	00d707b3          	add	a5,a4,a3
    1d54:	0705                	addi	a4,a4,1
    1d56:	00070583          	lb	a1,0(a4)
    1d5a:	07c2                	slli	a5,a5,0x10
    1d5c:	83c1                	srli	a5,a5,0x10
    1d5e:	f9ed                	bnez	a1,1d50 <scroll_text+0x44>
    1d60:	00379713          	slli	a4,a5,0x3
    1d64:	97ba                	add	a5,a5,a4
    1d66:	07a1                	addi	a5,a5,8
    1d68:	07c2                	slli	a5,a5,0x10
    1d6a:	83c1                	srli	a5,a5,0x10
    1d6c:	c03e                	sw	a5,0(sp)
    1d6e:	65b1                	lui	a1,0xc
    1d70:	b8058593          	addi	a1,a1,-1152 # bb80 <_data_lma+0x87c8>
    1d74:	8532                	mv	a0,a2
    1d76:	bdefe0ef          	jal	ra,154 <__mulsi3>
    1d7a:	c22a                	sw	a0,4(sp)
    1d7c:	449d                	li	s1,7
    1d7e:	ecffe0ef          	jal	ra,c4c <clear>
    1d82:	ff848713          	addi	a4,s1,-8
    1d86:	0742                	slli	a4,a4,0x10
    1d88:	8341                	srli	a4,a4,0x10
    1d8a:	87a6                	mv	a5,s1
    1d8c:	c43a                	sw	a4,8(sp)
    1d8e:	853e                	mv	a0,a5
    1d90:	45a5                	li	a1,9
    1d92:	c63e                	sw	a5,12(sp)
    1d94:	be0fe0ef          	jal	ra,174 <__udivsi3>
    1d98:	47b2                	lw	a5,12(sp)
    1d9a:	0542                	slli	a0,a0,0x10
    1d9c:	8141                	srli	a0,a0,0x10
    1d9e:	4701                	li	a4,0
    1da0:	01071693          	slli	a3,a4,0x10
    1da4:	0705                	addi	a4,a4,1
    1da6:	00e40633          	add	a2,s0,a4
    1daa:	fff60603          	lb	a2,-1(a2)
    1dae:	82c1                	srli	a3,a3,0x10
    1db0:	fa65                	bnez	a2,1da0 <scroll_text+0x94>
    1db2:	04d57463          	bgeu	a0,a3,1dfa <scroll_text+0xee>
    1db6:	9522                	add	a0,a0,s0
    1db8:	2108                	lbu	a0,0(a0)
    1dba:	670d                	lui	a4,0x3
    1dbc:	05070613          	addi	a2,a4,80 # 3050 <font_chars>
    1dc0:	4681                	li	a3,0
    1dc2:	05070713          	addi	a4,a4,80
    1dc6:	45f1                	li	a1,28
    1dc8:	00064303          	lbu	t1,0(a2)
    1dcc:	0aa31363          	bne	t1,a0,1e72 <scroll_text+0x166>
    1dd0:	00369613          	slli	a2,a3,0x3
    1dd4:	96b2                	add	a3,a3,a2
    1dd6:	0685                	addi	a3,a3,1
    1dd8:	9736                	add	a4,a4,a3
    1dda:	853e                	mv	a0,a5
    1ddc:	45a5                	li	a1,9
    1dde:	c63e                	sw	a5,12(sp)
    1de0:	c83a                	sw	a4,16(sp)
    1de2:	bbefe0ef          	jal	ra,1a0 <__umodsi3>
    1de6:	0542                	slli	a0,a0,0x10
    1de8:	8141                	srli	a0,a0,0x10
    1dea:	46a1                	li	a3,8
    1dec:	4601                	li	a2,0
    1dee:	47b2                	lw	a5,12(sp)
    1df0:	00d50563          	beq	a0,a3,1dfa <scroll_text+0xee>
    1df4:	4742                	lw	a4,16(sp)
    1df6:	972a                	add	a4,a4,a0
    1df8:	2310                	lbu	a2,0(a4)
    1dfa:	40f48733          	sub	a4,s1,a5
    1dfe:	0ff77713          	andi	a4,a4,255
    1e02:	469d                	li	a3,7
    1e04:	40d655b3          	sra	a1,a2,a3
    1e08:	8985                	andi	a1,a1,1
    1e0a:	cd89                	beqz	a1,1e24 <scroll_text+0x118>
    1e0c:	5592                	lw	a1,36(sp)
    1e0e:	853a                	mv	a0,a4
    1e10:	cc36                	sw	a3,24(sp)
    1e12:	ca32                	sw	a2,20(sp)
    1e14:	c83e                	sw	a5,16(sp)
    1e16:	c63a                	sw	a4,12(sp)
    1e18:	d81fe0ef          	jal	ra,b98 <set_color>
    1e1c:	46e2                	lw	a3,24(sp)
    1e1e:	4652                	lw	a2,20(sp)
    1e20:	47c2                	lw	a5,16(sp)
    1e22:	4732                	lw	a4,12(sp)
    1e24:	0721                	addi	a4,a4,8
    1e26:	16fd                	addi	a3,a3,-1
    1e28:	55fd                	li	a1,-1
    1e2a:	0ff77713          	andi	a4,a4,255
    1e2e:	fcb69be3          	bne	a3,a1,1e04 <scroll_text+0xf8>
    1e32:	17fd                	addi	a5,a5,-1
    1e34:	4722                	lw	a4,8(sp)
    1e36:	07c2                	slli	a5,a5,0x10
    1e38:	83c1                	srli	a5,a5,0x10
    1e3a:	f4e79ae3          	bne	a5,a4,1d8e <scroll_text+0x82>
    1e3e:	40011537          	lui	a0,0x40011
    1e42:	0c000693          	li	a3,192
    1e46:	8a818613          	addi	a2,gp,-1880 # 20000210 <led_array>
    1e4a:	4589                	li	a1,2
    1e4c:	80050513          	addi	a0,a0,-2048 # 40010800 <__global_pointer$+0x2000fe98>
    1e50:	90aff0ef          	jal	ra,f5a <WS2812BSimpleSend>
    1e54:	4702                	lw	a4,0(sp)
    1e56:	ffa48793          	addi	a5,s1,-6
    1e5a:	07c2                	slli	a5,a5,0x10
    1e5c:	0485                	addi	s1,s1,1
    1e5e:	04c2                	slli	s1,s1,0x10
    1e60:	83c1                	srli	a5,a5,0x10
    1e62:	071d                	addi	a4,a4,7
    1e64:	80c1                	srli	s1,s1,0x10
    1e66:	00f74c63          	blt	a4,a5,1e7e <scroll_text+0x172>
    1e6a:	4512                	lw	a0,4(sp)
    1e6c:	845fe0ef          	jal	ra,6b0 <DelaySysTick>
    1e70:	b739                	j	1d7e <scroll_text+0x72>
    1e72:	0685                	addi	a3,a3,1
    1e74:	0625                	addi	a2,a2,9
    1e76:	f4b699e3          	bne	a3,a1,1dc8 <scroll_text+0xbc>
    1e7a:	0705                	addi	a4,a4,1
    1e7c:	bfb9                	j	1dda <scroll_text+0xce>
    1e7e:	6145                	addi	sp,sp,48
    1e80:	acafe06f          	j	14a <__riscv_restore_0>

00001e84 <main>:
    1e84:	abcfe2ef          	jal	t0,140 <__riscv_save_0>
    1e88:	1141                	addi	sp,sp,-16
    1e8a:	83dfe0ef          	jal	ra,6c6 <SystemInit>
    1e8e:	8a7fe0ef          	jal	ra,734 <GPIO_ADCinit>
    1e92:	6785                	lui	a5,0x1
    1e94:	00003537          	lui	a0,0x3
    1e98:	23478793          	addi	a5,a5,564 # 1234 <check_collision+0x58>
    1e9c:	1e850513          	addi	a0,a0,488 # 31e8 <font_chars+0x198>
    1ea0:	96f19623          	sh	a5,-1684(gp) # 200002d4 <rnval>
    1ea4:	fe2fe0ef          	jal	ra,686 <puts>
    1ea8:	9b3fe0ef          	jal	ra,85a <i2c_init>
    1eac:	3d35                	jal	1ce8 <init_storage>
    1eae:	06400593          	li	a1,100
    1eb2:	3e800513          	li	a0,1000
    1eb6:	800ff0ef          	jal	ra,eb6 <JOY_sound>
    1eba:	edaff0ef          	jal	ra,1594 <load_id>
    1ebe:	82a181a3          	sb	a0,-2013(gp) # 2000018b <current_user_id>
    1ec2:	82318493          	addi	s1,gp,-2013 # 2000018b <current_user_id>
    1ec6:	e119                	bnez	a0,1ecc <main+0x48>
    1ec8:	e90ff0ef          	jal	ra,1558 <save_id>
    1ecc:	2088                	lbu	a0,0(s1)
    1ece:	c901                	beqz	a0,1ede <main+0x5a>
    1ed0:	157d                	addi	a0,a0,-1
    1ed2:	82018593          	addi	a1,gp,-2016 # 20000188 <current_name>
    1ed6:	0ff57513          	andi	a0,a0,255
    1eda:	8bfff0ef          	jal	ra,1798 <load_name>
    1ede:	200007b7          	lui	a5,0x20000
    1ee2:	0687a583          	lw	a1,104(a5) # 20000068 <appleColor>
    1ee6:	00003537          	lui	a0,0x3
    1eea:	07800613          	li	a2,120
    1eee:	1fc50513          	addi	a0,a0,508 # 31fc <font_chars+0x1ac>
    1ef2:	3d29                	jal	1d0c <scroll_text>
    1ef4:	d32ff0ef          	jal	ra,1426 <choose_your_name>
    1ef8:	02dc7537          	lui	a0,0x2dc7
    1efc:	c0050513          	addi	a0,a0,-1024 # 2dc6c00 <_data_lma+0x2dc3848>
    1f00:	fb0fe0ef          	jal	ra,6b0 <DelaySysTick>
    1f04:	00001437          	lui	s0,0x1
    1f08:	4595                	li	a1,5
    1f0a:	d0840513          	addi	a0,s0,-760 # d08 <ADC_read_smallboard>
    1f0e:	e05fe0ef          	jal	ra,d12 <multiple_ADC_reads>
    1f12:	e55fe0ef          	jal	ra,d66 <JOY_check_button>
    1f16:	57dd                	li	a5,-9
    1f18:	1af51e63          	bne	a0,a5,20d4 <main+0x250>
    1f1c:	4595                	li	a1,5
    1f1e:	d0840513          	addi	a0,s0,-760
    1f22:	df1fe0ef          	jal	ra,d12 <multiple_ADC_reads>
    1f26:	e41fe0ef          	jal	ra,d66 <JOY_check_button>
    1f2a:	57dd                	li	a5,-9
    1f2c:	18f50d63          	beq	a0,a5,20c6 <main+0x242>
    1f30:	eacff0ef          	jal	ra,15dc <create_name>
    1f34:	d19fe0ef          	jal	ra,c4c <clear>
    1f38:	02dc7537          	lui	a0,0x2dc7
    1f3c:	c0050513          	addi	a0,a0,-1024 # 2dc6c00 <_data_lma+0x2dc3848>
    1f40:	f70fe0ef          	jal	ra,6b0 <DelaySysTick>
    1f44:	0068                	addi	a0,sp,12
    1f46:	903ff0ef          	jal	ra,1848 <get_current_user_name>
    1f4a:	000037b7          	lui	a5,0x3
    1f4e:	20478513          	addi	a0,a5,516 # 3204 <font_chars+0x1b4>
    1f52:	006c                	addi	a1,sp,12
    1f54:	e74fe0ef          	jal	ra,5c8 <printf>
    1f58:	4595                	li	a1,5
    1f5a:	d0840513          	addi	a0,s0,-760
    1f5e:	db5fe0ef          	jal	ra,d12 <multiple_ADC_reads>
    1f62:	e05fe0ef          	jal	ra,d66 <JOY_check_button>
    1f66:	57d5                	li	a5,-11
    1f68:	fcf51ee3          	bne	a0,a5,1f44 <main+0xc0>
    1f6c:	8ecff0ef          	jal	ra,1058 <game_init>
    1f70:	938ff0ef          	jal	ra,10a8 <display>
    1f74:	8f7ff0ef          	jal	ra,186a <load_scores>
    1f78:	02dc7537          	lui	a0,0x2dc7
    1f7c:	c0050513          	addi	a0,a0,-1024 # 2dc6c00 <_data_lma+0x2dc3848>
    1f80:	f30fe0ef          	jal	ra,6b0 <DelaySysTick>
    1f84:	8a018223          	sb	zero,-1884(gp) # 2000020c <gameOver>
    1f88:	8a418793          	addi	a5,gp,-1884 # 2000020c <gameOver>
    1f8c:	54fd                	li	s1,-1
    1f8e:	c03e                	sw	a5,0(sp)
    1f90:	4595                	li	a1,5
    1f92:	d0840513          	addi	a0,s0,-760
    1f96:	d7dfe0ef          	jal	ra,d12 <multiple_ADC_reads>
    1f9a:	dcdfe0ef          	jal	ra,d66 <JOY_check_button>
    1f9e:	57d9                	li	a5,-10
    1fa0:	02f51863          	bne	a0,a5,1fd0 <main+0x14c>
    1fa4:	4595                	li	a1,5
    1fa6:	d0840513          	addi	a0,s0,-760
    1faa:	d69fe0ef          	jal	ra,d12 <multiple_ADC_reads>
    1fae:	db9fe0ef          	jal	ra,d66 <JOY_check_button>
    1fb2:	57d9                	li	a5,-10
    1fb4:	1cf50f63          	beq	a0,a5,2192 <main+0x30e>
    1fb8:	8a518713          	addi	a4,gp,-1883 # 2000020d <game_regime>
    1fbc:	231c                	lbu	a5,0(a4)
    1fbe:	00494537          	lui	a0,0x494
    1fc2:	e0050513          	addi	a0,a0,-512 # 493e00 <_data_lma+0x490a48>
    1fc6:	0017c793          	xori	a5,a5,1
    1fca:	a31c                	sb	a5,0(a4)
    1fcc:	ee4fe0ef          	jal	ra,6b0 <DelaySysTick>
    1fd0:	8526                	mv	a0,s1
    1fd2:	994ff0ef          	jal	ra,1166 <get_new_direction>
    1fd6:	97c18793          	addi	a5,gp,-1668 # 200002e4 <speedCounter>
    1fda:	2392                	lhu	a2,0(a5)
    1fdc:	84aa                	mv	s1,a0
    1fde:	00160693          	addi	a3,a2,1
    1fe2:	a396                	sh	a3,0(a5)
    1fe4:	97a1c783          	lbu	a5,-1670(gp) # 200002e2 <snakeHead>
    1fe8:	c432                	sw	a2,8(sp)
    1fea:	97aa                	add	a5,a5,a0
    1fec:	07e2                	slli	a5,a5,0x18
    1fee:	87e1                	srai	a5,a5,0x18
    1ff0:	853e                	mv	a0,a5
    1ff2:	c23e                	sw	a5,4(sp)
    1ff4:	9e8ff0ef          	jal	ra,11dc <check_collision>
    1ff8:	97c18713          	addi	a4,gp,-1668 # 200002e4 <speedCounter>
    1ffc:	4792                	lw	a5,4(sp)
    1ffe:	4622                	lw	a2,8(sp)
    2000:	1a050063          	beqz	a0,21a0 <main+0x31c>
    2004:	4702                	lw	a4,0(sp)
    2006:	4785                	li	a5,1
    2008:	a31c                	sb	a5,0(a4)
    200a:	81f18693          	addi	a3,gp,-2017 # 20000187 <currentScoreIndex>
    200e:	229c                	lbu	a5,0(a3)
    2010:	96e1c503          	lbu	a0,-1682(gp) # 200002d6 <score>
    2014:	4725                	li	a4,9
    2016:	00f76863          	bltu	a4,a5,2026 <main+0x1a2>
    201a:	97018713          	addi	a4,gp,-1680 # 200002d8 <scoreHistory>
    201e:	973e                	add	a4,a4,a5
    2020:	0785                	addi	a5,a5,1
    2022:	a308                	sb	a0,0(a4)
    2024:	a29c                	sb	a5,0(a3)
    2026:	c64ff0ef          	jal	ra,148a <save_currentScore_EEPROM>
    202a:	9681a583          	lw	a1,-1688(gp) # 200002d0 <new_name>
    202e:	8181c503          	lbu	a0,-2024(gp) # 20000180 <Identifier>
    2032:	d96ff0ef          	jal	ra,15c8 <save_name>
    2036:	478d                	li	a5,3
    2038:	c03e                	sw	a5,0(sp)
    203a:	ab6ff0ef          	jal	ra,12f0 <show_current_score>
    203e:	016e3537          	lui	a0,0x16e3
    2042:	60050513          	addi	a0,a0,1536 # 16e3600 <_data_lma+0x16e0248>
    2046:	e6afe0ef          	jal	ra,6b0 <DelaySysTick>
    204a:	c03fe0ef          	jal	ra,c4c <clear>
    204e:	40011537          	lui	a0,0x40011
    2052:	0c000693          	li	a3,192
    2056:	8a818613          	addi	a2,gp,-1880 # 20000210 <led_array>
    205a:	4589                	li	a1,2
    205c:	80050513          	addi	a0,a0,-2048 # 40010800 <__global_pointer$+0x2000fe98>
    2060:	efbfe0ef          	jal	ra,f5a <WS2812BSimpleSend>
    2064:	00928537          	lui	a0,0x928
    2068:	c0050513          	addi	a0,a0,-1024 # 927c00 <_data_lma+0x924848>
    206c:	e44fe0ef          	jal	ra,6b0 <DelaySysTick>
    2070:	4782                	lw	a5,0(sp)
    2072:	17fd                	addi	a5,a5,-1
    2074:	0ff7f793          	andi	a5,a5,255
    2078:	f3e1                	bnez	a5,2038 <main+0x1b4>
    207a:	6489                	lui	s1,0x2
    207c:	71048493          	addi	s1,s1,1808 # 2710 <__udivdi3+0x420>
    2080:	4595                	li	a1,5
    2082:	d0840513          	addi	a0,s0,-760
    2086:	c8dfe0ef          	jal	ra,d12 <multiple_ADC_reads>
    208a:	cddfe0ef          	jal	ra,d66 <JOY_check_button>
    208e:	57d5                	li	a5,-11
    2090:	1af51363          	bne	a0,a5,2236 <main+0x3b2>
    2094:	4595                	li	a1,5
    2096:	d0840513          	addi	a0,s0,-760
    209a:	c79fe0ef          	jal	ra,d12 <multiple_ADC_reads>
    209e:	cc9fe0ef          	jal	ra,d66 <JOY_check_button>
    20a2:	57d5                	li	a5,-11
    20a4:	18f50263          	beq	a0,a5,2228 <main+0x3a4>
    20a8:	6489                	lui	s1,0x2
    20aa:	c29ff0ef          	jal	ra,1cd2 <reset_all_scores>
    20ae:	71048493          	addi	s1,s1,1808 # 2710 <__udivdi3+0x420>
    20b2:	00075537          	lui	a0,0x75
    20b6:	30050513          	addi	a0,a0,768 # 75300 <_data_lma+0x71f48>
    20ba:	14d9                	addi	s1,s1,-10
    20bc:	df4fe0ef          	jal	ra,6b0 <DelaySysTick>
    20c0:	e80482e3          	beqz	s1,1f44 <main+0xc0>
    20c4:	bf75                	j	2080 <main+0x1fc>
    20c6:	000ea537          	lui	a0,0xea
    20ca:	60050513          	addi	a0,a0,1536 # ea600 <_data_lma+0xe7248>
    20ce:	de2fe0ef          	jal	ra,6b0 <DelaySysTick>
    20d2:	b5a9                	j	1f1c <main+0x98>
    20d4:	4595                	li	a1,5
    20d6:	d0840513          	addi	a0,s0,-760
    20da:	c39fe0ef          	jal	ra,d12 <multiple_ADC_reads>
    20de:	c89fe0ef          	jal	ra,d66 <JOY_check_button>
    20e2:	57d9                	li	a5,-10
    20e4:	02f51963          	bne	a0,a5,2116 <main+0x292>
    20e8:	4595                	li	a1,5
    20ea:	d0840513          	addi	a0,s0,-760
    20ee:	c25fe0ef          	jal	ra,d12 <multiple_ADC_reads>
    20f2:	c75fe0ef          	jal	ra,d66 <JOY_check_button>
    20f6:	57d9                	li	a5,-10
    20f8:	00f50863          	beq	a0,a5,2108 <main+0x284>
    20fc:	00048023          	sb	zero,0(s1)
    2100:	4501                	li	a0,0
    2102:	ee8ff0ef          	jal	ra,17ea <available_names>
    2106:	b53d                	j	1f34 <main+0xb0>
    2108:	000ea537          	lui	a0,0xea
    210c:	60050513          	addi	a0,a0,1536 # ea600 <_data_lma+0xe7248>
    2110:	da0fe0ef          	jal	ra,6b0 <DelaySysTick>
    2114:	bfd1                	j	20e8 <main+0x264>
    2116:	4595                	li	a1,5
    2118:	d0840513          	addi	a0,s0,-760
    211c:	bf7fe0ef          	jal	ra,d12 <multiple_ADC_reads>
    2120:	c47fe0ef          	jal	ra,d66 <JOY_check_button>
    2124:	57f1                	li	a5,-4
    2126:	02f51763          	bne	a0,a5,2154 <main+0x2d0>
    212a:	4595                	li	a1,5
    212c:	d0840513          	addi	a0,s0,-760
    2130:	be3fe0ef          	jal	ra,d12 <multiple_ADC_reads>
    2134:	c33fe0ef          	jal	ra,d66 <JOY_check_button>
    2138:	57f1                	li	a5,-4
    213a:	00f50663          	beq	a0,a5,2146 <main+0x2c2>
    213e:	4785                	li	a5,1
    2140:	a09c                	sb	a5,0(s1)
    2142:	4505                	li	a0,1
    2144:	bf7d                	j	2102 <main+0x27e>
    2146:	000ea537          	lui	a0,0xea
    214a:	60050513          	addi	a0,a0,1536 # ea600 <_data_lma+0xe7248>
    214e:	d62fe0ef          	jal	ra,6b0 <DelaySysTick>
    2152:	bfe1                	j	212a <main+0x2a6>
    2154:	4595                	li	a1,5
    2156:	d0840513          	addi	a0,s0,-760
    215a:	bb9fe0ef          	jal	ra,d12 <multiple_ADC_reads>
    215e:	c09fe0ef          	jal	ra,d66 <JOY_check_button>
    2162:	57e9                	li	a5,-6
    2164:	daf512e3          	bne	a0,a5,1f08 <main+0x84>
    2168:	4595                	li	a1,5
    216a:	d0840513          	addi	a0,s0,-760
    216e:	ba5fe0ef          	jal	ra,d12 <multiple_ADC_reads>
    2172:	bf5fe0ef          	jal	ra,d66 <JOY_check_button>
    2176:	57e9                	li	a5,-6
    2178:	00f50663          	beq	a0,a5,2184 <main+0x300>
    217c:	4789                	li	a5,2
    217e:	a09c                	sb	a5,0(s1)
    2180:	4509                	li	a0,2
    2182:	b741                	j	2102 <main+0x27e>
    2184:	000ea537          	lui	a0,0xea
    2188:	60050513          	addi	a0,a0,1536 # ea600 <_data_lma+0xe7248>
    218c:	d24fe0ef          	jal	ra,6b0 <DelaySysTick>
    2190:	bfe1                	j	2168 <main+0x2e4>
    2192:	000ea537          	lui	a0,0xea
    2196:	60050513          	addi	a0,a0,1536 # ea600 <_data_lma+0xe7248>
    219a:	d16fe0ef          	jal	ra,6b0 <DelaySysTick>
    219e:	b519                	j	1fa4 <main+0x120>
    21a0:	82418693          	addi	a3,gp,-2012 # 2000018c <gameBoard>
    21a4:	0786                	slli	a5,a5,0x1
    21a6:	97b6                	add	a5,a5,a3
    21a8:	00078783          	lb	a5,0(a5)
    21ac:	06100693          	li	a3,97
    21b0:	f9f78593          	addi	a1,a5,-97
    21b4:	0015b593          	seqz	a1,a1
    21b8:	00d79d63          	bne	a5,a3,21d2 <main+0x34e>
    21bc:	96e18793          	addi	a5,gp,-1682 # 200002d6 <score>
    21c0:	2394                	lbu	a3,0(a5)
    21c2:	1671                	addi	a2,a2,-4
    21c4:	c22e                	sw	a1,4(sp)
    21c6:	0685                	addi	a3,a3,1
    21c8:	a312                	sh	a2,0(a4)
    21ca:	a394                	sb	a3,0(a5)
    21cc:	e65fe0ef          	jal	ra,1030 <generate_apple>
    21d0:	4592                	lw	a1,4(sp)
    21d2:	8526                	mv	a0,s1
    21d4:	870ff0ef          	jal	ra,1244 <move_snake>
    21d8:	ed1fe0ef          	jal	ra,10a8 <display>
    21dc:	8a51c783          	lbu	a5,-1883(gp) # 2000020d <game_regime>
    21e0:	97c18713          	addi	a4,gp,-1668 # 200002e4 <speedCounter>
    21e4:	231a                	lhu	a4,0(a4)
    21e6:	c799                	beqz	a5,21f4 <main+0x370>
    21e8:	00271793          	slli	a5,a4,0x2
    21ec:	97ba                	add	a5,a5,a4
    21ee:	01079713          	slli	a4,a5,0x10
    21f2:	8341                	srli	a4,a4,0x10
    21f4:	1f400793          	li	a5,500
    21f8:	8f99                	sub	a5,a5,a4
    21fa:	07c2                	slli	a5,a5,0x10
    21fc:	83c1                	srli	a5,a5,0x10
    21fe:	06400713          	li	a4,100
    2202:	853e                	mv	a0,a5
    2204:	00e7f463          	bgeu	a5,a4,220c <main+0x388>
    2208:	06400513          	li	a0,100
    220c:	65b1                	lui	a1,0xc
    220e:	0542                	slli	a0,a0,0x10
    2210:	b8058593          	addi	a1,a1,-1152 # bb80 <_data_lma+0x87c8>
    2214:	8141                	srli	a0,a0,0x10
    2216:	f3ffd0ef          	jal	ra,154 <__mulsi3>
    221a:	c96fe0ef          	jal	ra,6b0 <DelaySysTick>
    221e:	4782                	lw	a5,0(sp)
    2220:	239c                	lbu	a5,0(a5)
    2222:	d60787e3          	beqz	a5,1f90 <main+0x10c>
    2226:	b3d5                	j	200a <main+0x186>
    2228:	00075537          	lui	a0,0x75
    222c:	30050513          	addi	a0,a0,768 # 75300 <_data_lma+0x71f48>
    2230:	c80fe0ef          	jal	ra,6b0 <DelaySysTick>
    2234:	b585                	j	2094 <main+0x210>
    2236:	4595                	li	a1,5
    2238:	d0840513          	addi	a0,s0,-760
    223c:	ad7fe0ef          	jal	ra,d12 <multiple_ADC_reads>
    2240:	b27fe0ef          	jal	ra,d66 <JOY_check_button>
    2244:	57e9                	li	a5,-6
    2246:	02f51c63          	bne	a0,a5,227e <main+0x3fa>
    224a:	4595                	li	a1,5
    224c:	d0840513          	addi	a0,s0,-760
    2250:	ac3fe0ef          	jal	ra,d12 <multiple_ADC_reads>
    2254:	b13fe0ef          	jal	ra,d66 <JOY_check_button>
    2258:	57e9                	li	a5,-6
    225a:	00f50b63          	beq	a0,a5,2270 <main+0x3ec>
    225e:	815ff0ef          	jal	ra,1a72 <show_name_and_highest_score>
    2262:	016e3537          	lui	a0,0x16e3
    2266:	60050513          	addi	a0,a0,1536 # 16e3600 <_data_lma+0x16e0248>
    226a:	c46fe0ef          	jal	ra,6b0 <DelaySysTick>
    226e:	b591                	j	20b2 <main+0x22e>
    2270:	00075537          	lui	a0,0x75
    2274:	30050513          	addi	a0,a0,768 # 75300 <_data_lma+0x71f48>
    2278:	c38fe0ef          	jal	ra,6b0 <DelaySysTick>
    227c:	b7f9                	j	224a <main+0x3c6>
    227e:	4595                	li	a1,5
    2280:	d0840513          	addi	a0,s0,-760
    2284:	a8ffe0ef          	jal	ra,d12 <multiple_ADC_reads>
    2288:	adffe0ef          	jal	ra,d66 <JOY_check_button>
    228c:	57dd                	li	a5,-9
    228e:	02f51363          	bne	a0,a5,22b4 <main+0x430>
    2292:	4595                	li	a1,5
    2294:	d0840513          	addi	a0,s0,-760
    2298:	a7bfe0ef          	jal	ra,d12 <multiple_ADC_reads>
    229c:	acbfe0ef          	jal	ra,d66 <JOY_check_button>
    22a0:	57dd                	li	a5,-9
    22a2:	caf511e3          	bne	a0,a5,1f44 <main+0xc0>
    22a6:	00075537          	lui	a0,0x75
    22aa:	30050513          	addi	a0,a0,768 # 75300 <_data_lma+0x71f48>
    22ae:	c02fe0ef          	jal	ra,6b0 <DelaySysTick>
    22b2:	b7c5                	j	2292 <main+0x40e>
    22b4:	4595                	li	a1,5
    22b6:	d0840513          	addi	a0,s0,-760
    22ba:	a59fe0ef          	jal	ra,d12 <multiple_ADC_reads>
    22be:	aa9fe0ef          	jal	ra,d66 <JOY_check_button>
    22c2:	57e5                	li	a5,-7
    22c4:	def517e3          	bne	a0,a5,20b2 <main+0x22e>
    22c8:	4595                	li	a1,5
    22ca:	d0840513          	addi	a0,s0,-760
    22ce:	a45fe0ef          	jal	ra,d12 <multiple_ADC_reads>
    22d2:	a95fe0ef          	jal	ra,d66 <JOY_check_button>
    22d6:	57e5                	li	a5,-7
    22d8:	00f50563          	beq	a0,a5,22e2 <main+0x45e>
    22dc:	e18ff0ef          	jal	ra,18f4 <reveal_all_scores>
    22e0:	b749                	j	2262 <main+0x3de>
    22e2:	00075537          	lui	a0,0x75
    22e6:	30050513          	addi	a0,a0,768 # 75300 <_data_lma+0x71f48>
    22ea:	bc6fe0ef          	jal	ra,6b0 <DelaySysTick>
    22ee:	bfe9                	j	22c8 <main+0x444>

000022f0 <__udivdi3>:
    22f0:	fd410113          	addi	sp,sp,-44
    22f4:	d406                	sw	ra,40(sp)
    22f6:	d222                	sw	s0,36(sp)
    22f8:	d026                	sw	s1,32(sp)
    22fa:	872a                	mv	a4,a0
    22fc:	87ae                	mv	a5,a1
    22fe:	20069163          	bnez	a3,2500 <__udivdi3+0x210>
    2302:	84b6                	mv	s1,a3
    2304:	8332                	mv	t1,a2
    2306:	842a                	mv	s0,a0
    2308:	0ec5fe63          	bgeu	a1,a2,2404 <__udivdi3+0x114>
    230c:	66c1                	lui	a3,0x10
    230e:	82ae                	mv	t0,a1
    2310:	26d66363          	bltu	a2,a3,2576 <__udivdi3+0x286>
    2314:	010006b7          	lui	a3,0x1000
    2318:	48d66763          	bltu	a2,a3,27a6 <__udivdi3+0x4b6>
    231c:	01865593          	srli	a1,a2,0x18
    2320:	44e1                	li	s1,24
    2322:	00001697          	auipc	a3,0x1
    2326:	f9668693          	addi	a3,a3,-106 # 32b8 <__clz_tab>
    232a:	96ae                	add	a3,a3,a1
    232c:	2294                	lbu	a3,0(a3)
    232e:	94b6                	add	s1,s1,a3
    2330:	02000693          	li	a3,32
    2334:	8e85                	sub	a3,a3,s1
    2336:	ca99                	beqz	a3,234c <__udivdi3+0x5c>
    2338:	00d797b3          	sll	a5,a5,a3
    233c:	009754b3          	srl	s1,a4,s1
    2340:	00d61333          	sll	t1,a2,a3
    2344:	00f4e2b3          	or	t0,s1,a5
    2348:	00d71433          	sll	s0,a4,a3
    234c:	01035493          	srli	s1,t1,0x10
    2350:	85a6                	mv	a1,s1
    2352:	8516                	mv	a0,t0
    2354:	c21a                	sw	t1,4(sp)
    2356:	c016                	sw	t0,0(sp)
    2358:	e49fd0ef          	jal	ra,1a0 <__umodsi3>
    235c:	4312                	lw	t1,4(sp)
    235e:	4282                	lw	t0,0(sp)
    2360:	c62a                	sw	a0,12(sp)
    2362:	01031793          	slli	a5,t1,0x10
    2366:	83c1                	srli	a5,a5,0x10
    2368:	85a6                	mv	a1,s1
    236a:	8516                	mv	a0,t0
    236c:	c41a                	sw	t1,8(sp)
    236e:	c03e                	sw	a5,0(sp)
    2370:	e05fd0ef          	jal	ra,174 <__udivsi3>
    2374:	85aa                	mv	a1,a0
    2376:	c22a                	sw	a0,4(sp)
    2378:	4502                	lw	a0,0(sp)
    237a:	ddbfd0ef          	jal	ra,154 <__mulsi3>
    237e:	4732                	lw	a4,12(sp)
    2380:	01045793          	srli	a5,s0,0x10
    2384:	4692                	lw	a3,4(sp)
    2386:	0742                	slli	a4,a4,0x10
    2388:	8fd9                	or	a5,a5,a4
    238a:	4322                	lw	t1,8(sp)
    238c:	00a7fa63          	bgeu	a5,a0,23a0 <__udivdi3+0xb0>
    2390:	979a                	add	a5,a5,t1
    2392:	fff68713          	addi	a4,a3,-1
    2396:	0067e463          	bltu	a5,t1,239e <__udivdi3+0xae>
    239a:	42a7ec63          	bltu	a5,a0,27d2 <__udivdi3+0x4e2>
    239e:	86ba                	mv	a3,a4
    23a0:	8f89                	sub	a5,a5,a0
    23a2:	85a6                	mv	a1,s1
    23a4:	853e                	mv	a0,a5
    23a6:	c636                	sw	a3,12(sp)
    23a8:	c81a                	sw	t1,16(sp)
    23aa:	c43e                	sw	a5,8(sp)
    23ac:	df5fd0ef          	jal	ra,1a0 <__umodsi3>
    23b0:	47a2                	lw	a5,8(sp)
    23b2:	85a6                	mv	a1,s1
    23b4:	c22a                	sw	a0,4(sp)
    23b6:	853e                	mv	a0,a5
    23b8:	dbdfd0ef          	jal	ra,174 <__udivsi3>
    23bc:	85aa                	mv	a1,a0
    23be:	84aa                	mv	s1,a0
    23c0:	4502                	lw	a0,0(sp)
    23c2:	0442                	slli	s0,s0,0x10
    23c4:	8041                	srli	s0,s0,0x10
    23c6:	d8ffd0ef          	jal	ra,154 <__mulsi3>
    23ca:	4292                	lw	t0,4(sp)
    23cc:	46b2                	lw	a3,12(sp)
    23ce:	02c2                	slli	t0,t0,0x10
    23d0:	0082e433          	or	s0,t0,s0
    23d4:	00a47c63          	bgeu	s0,a0,23ec <__udivdi3+0xfc>
    23d8:	4342                	lw	t1,16(sp)
    23da:	fff48793          	addi	a5,s1,-1
    23de:	941a                	add	s0,s0,t1
    23e0:	00646563          	bltu	s0,t1,23ea <__udivdi3+0xfa>
    23e4:	14f9                	addi	s1,s1,-2
    23e6:	00a46363          	bltu	s0,a0,23ec <__udivdi3+0xfc>
    23ea:	84be                	mv	s1,a5
    23ec:	01069793          	slli	a5,a3,0x10
    23f0:	0097e533          	or	a0,a5,s1
    23f4:	4681                	li	a3,0
    23f6:	85b6                	mv	a1,a3
    23f8:	50a2                	lw	ra,40(sp)
    23fa:	5412                	lw	s0,36(sp)
    23fc:	5482                	lw	s1,32(sp)
    23fe:	02c10113          	addi	sp,sp,44
    2402:	8082                	ret
    2404:	ea11                	bnez	a2,2418 <__udivdi3+0x128>
    2406:	c22e                	sw	a1,4(sp)
    2408:	c02a                	sw	a0,0(sp)
    240a:	4581                	li	a1,0
    240c:	4505                	li	a0,1
    240e:	d67fd0ef          	jal	ra,174 <__udivsi3>
    2412:	4792                	lw	a5,4(sp)
    2414:	4702                	lw	a4,0(sp)
    2416:	832a                	mv	t1,a0
    2418:	66c1                	lui	a3,0x10
    241a:	14d36563          	bltu	t1,a3,2564 <__udivdi3+0x274>
    241e:	010006b7          	lui	a3,0x1000
    2422:	38d36663          	bltu	t1,a3,27ae <__udivdi3+0x4be>
    2426:	01835613          	srli	a2,t1,0x18
    242a:	44e1                	li	s1,24
    242c:	00001697          	auipc	a3,0x1
    2430:	e8c68693          	addi	a3,a3,-372 # 32b8 <__clz_tab>
    2434:	96b2                	add	a3,a3,a2
    2436:	0006c283          	lbu	t0,0(a3)
    243a:	02000613          	li	a2,32
    243e:	92a6                	add	t0,t0,s1
    2440:	40560633          	sub	a2,a2,t0
    2444:	14061263          	bnez	a2,2588 <__udivdi3+0x298>
    2448:	01031713          	slli	a4,t1,0x10
    244c:	8341                	srli	a4,a4,0x10
    244e:	406787b3          	sub	a5,a5,t1
    2452:	01035493          	srli	s1,t1,0x10
    2456:	c03a                	sw	a4,0(sp)
    2458:	4685                	li	a3,1
    245a:	85a6                	mv	a1,s1
    245c:	853e                	mv	a0,a5
    245e:	c836                	sw	a3,16(sp)
    2460:	c61a                	sw	t1,12(sp)
    2462:	c23e                	sw	a5,4(sp)
    2464:	d3dfd0ef          	jal	ra,1a0 <__umodsi3>
    2468:	4792                	lw	a5,4(sp)
    246a:	c42a                	sw	a0,8(sp)
    246c:	85a6                	mv	a1,s1
    246e:	853e                	mv	a0,a5
    2470:	d05fd0ef          	jal	ra,174 <__udivsi3>
    2474:	4582                	lw	a1,0(sp)
    2476:	c22a                	sw	a0,4(sp)
    2478:	cddfd0ef          	jal	ra,154 <__mulsi3>
    247c:	4722                	lw	a4,8(sp)
    247e:	01045793          	srli	a5,s0,0x10
    2482:	4332                	lw	t1,12(sp)
    2484:	0742                	slli	a4,a4,0x10
    2486:	8fd9                	or	a5,a5,a4
    2488:	46c2                	lw	a3,16(sp)
    248a:	00a7fb63          	bgeu	a5,a0,24a0 <__udivdi3+0x1b0>
    248e:	4612                	lw	a2,4(sp)
    2490:	979a                	add	a5,a5,t1
    2492:	fff60713          	addi	a4,a2,-1
    2496:	0067e463          	bltu	a5,t1,249e <__udivdi3+0x1ae>
    249a:	32a7ef63          	bltu	a5,a0,27d8 <__udivdi3+0x4e8>
    249e:	c23a                	sw	a4,4(sp)
    24a0:	8f89                	sub	a5,a5,a0
    24a2:	85a6                	mv	a1,s1
    24a4:	853e                	mv	a0,a5
    24a6:	c836                	sw	a3,16(sp)
    24a8:	ca1a                	sw	t1,20(sp)
    24aa:	c63e                	sw	a5,12(sp)
    24ac:	cf5fd0ef          	jal	ra,1a0 <__umodsi3>
    24b0:	47b2                	lw	a5,12(sp)
    24b2:	85a6                	mv	a1,s1
    24b4:	c42a                	sw	a0,8(sp)
    24b6:	853e                	mv	a0,a5
    24b8:	cbdfd0ef          	jal	ra,174 <__udivsi3>
    24bc:	4582                	lw	a1,0(sp)
    24be:	84aa                	mv	s1,a0
    24c0:	0442                	slli	s0,s0,0x10
    24c2:	c93fd0ef          	jal	ra,154 <__mulsi3>
    24c6:	42a2                	lw	t0,8(sp)
    24c8:	8041                	srli	s0,s0,0x10
    24ca:	46c2                	lw	a3,16(sp)
    24cc:	02c2                	slli	t0,t0,0x10
    24ce:	0082e433          	or	s0,t0,s0
    24d2:	00a47c63          	bgeu	s0,a0,24ea <__udivdi3+0x1fa>
    24d6:	4352                	lw	t1,20(sp)
    24d8:	fff48793          	addi	a5,s1,-1
    24dc:	941a                	add	s0,s0,t1
    24de:	00646563          	bltu	s0,t1,24e8 <__udivdi3+0x1f8>
    24e2:	14f9                	addi	s1,s1,-2
    24e4:	00a46363          	bltu	s0,a0,24ea <__udivdi3+0x1fa>
    24e8:	84be                	mv	s1,a5
    24ea:	4792                	lw	a5,4(sp)
    24ec:	07c2                	slli	a5,a5,0x10
    24ee:	0097e533          	or	a0,a5,s1
    24f2:	85b6                	mv	a1,a3
    24f4:	50a2                	lw	ra,40(sp)
    24f6:	5412                	lw	s0,36(sp)
    24f8:	5482                	lw	s1,32(sp)
    24fa:	02c10113          	addi	sp,sp,44
    24fe:	8082                	ret
    2500:	04d5e163          	bltu	a1,a3,2542 <__udivdi3+0x252>
    2504:	65c1                	lui	a1,0x10
    2506:	04b6e763          	bltu	a3,a1,2554 <__udivdi3+0x264>
    250a:	010005b7          	lui	a1,0x1000
    250e:	28b6e863          	bltu	a3,a1,279e <__udivdi3+0x4ae>
    2512:	0186d593          	srli	a1,a3,0x18
    2516:	4361                	li	t1,24
    2518:	00001517          	auipc	a0,0x1
    251c:	da050513          	addi	a0,a0,-608 # 32b8 <__clz_tab>
    2520:	952e                	add	a0,a0,a1
    2522:	210c                	lbu	a1,0(a0)
    2524:	959a                	add	a1,a1,t1
    2526:	02000313          	li	t1,32
    252a:	40b30333          	sub	t1,t1,a1
    252e:	10031d63          	bnez	t1,2648 <__udivdi3+0x358>
    2532:	28f6e263          	bltu	a3,a5,27b6 <__udivdi3+0x4c6>
    2536:	00c737b3          	sltu	a5,a4,a2
    253a:	0017c513          	xori	a0,a5,1
    253e:	4681                	li	a3,0
    2540:	a019                	j	2546 <__udivdi3+0x256>
    2542:	4681                	li	a3,0
    2544:	4501                	li	a0,0
    2546:	85b6                	mv	a1,a3
    2548:	50a2                	lw	ra,40(sp)
    254a:	5412                	lw	s0,36(sp)
    254c:	5482                	lw	s1,32(sp)
    254e:	02c10113          	addi	sp,sp,44
    2552:	8082                	ret
    2554:	0ff00593          	li	a1,255
    2558:	26d5f263          	bgeu	a1,a3,27bc <__udivdi3+0x4cc>
    255c:	0086d593          	srli	a1,a3,0x8
    2560:	4321                	li	t1,8
    2562:	bf5d                	j	2518 <__udivdi3+0x228>
    2564:	0ff00693          	li	a3,255
    2568:	861a                	mv	a2,t1
    256a:	ec66f1e3          	bgeu	a3,t1,242c <__udivdi3+0x13c>
    256e:	00835613          	srli	a2,t1,0x8
    2572:	44a1                	li	s1,8
    2574:	bd65                	j	242c <__udivdi3+0x13c>
    2576:	0ff00693          	li	a3,255
    257a:	85b2                	mv	a1,a2
    257c:	dac6f3e3          	bgeu	a3,a2,2322 <__udivdi3+0x32>
    2580:	00865593          	srli	a1,a2,0x8
    2584:	44a1                	li	s1,8
    2586:	bb71                	j	2322 <__udivdi3+0x32>
    2588:	00c31333          	sll	t1,t1,a2
    258c:	0057d6b3          	srl	a3,a5,t0
    2590:	01035493          	srli	s1,t1,0x10
    2594:	00c797b3          	sll	a5,a5,a2
    2598:	005752b3          	srl	t0,a4,t0
    259c:	00c71433          	sll	s0,a4,a2
    25a0:	01031713          	slli	a4,t1,0x10
    25a4:	00f2e7b3          	or	a5,t0,a5
    25a8:	8341                	srli	a4,a4,0x10
    25aa:	85a6                	mv	a1,s1
    25ac:	8536                	mv	a0,a3
    25ae:	c23e                	sw	a5,4(sp)
    25b0:	c81a                	sw	t1,16(sp)
    25b2:	c03a                	sw	a4,0(sp)
    25b4:	c436                	sw	a3,8(sp)
    25b6:	bebfd0ef          	jal	ra,1a0 <__umodsi3>
    25ba:	46a2                	lw	a3,8(sp)
    25bc:	c62a                	sw	a0,12(sp)
    25be:	85a6                	mv	a1,s1
    25c0:	8536                	mv	a0,a3
    25c2:	bb3fd0ef          	jal	ra,174 <__udivsi3>
    25c6:	85aa                	mv	a1,a0
    25c8:	c42a                	sw	a0,8(sp)
    25ca:	4502                	lw	a0,0(sp)
    25cc:	b89fd0ef          	jal	ra,154 <__mulsi3>
    25d0:	4632                	lw	a2,12(sp)
    25d2:	4792                	lw	a5,4(sp)
    25d4:	46a2                	lw	a3,8(sp)
    25d6:	0642                	slli	a2,a2,0x10
    25d8:	83c1                	srli	a5,a5,0x10
    25da:	8fd1                	or	a5,a5,a2
    25dc:	4342                	lw	t1,16(sp)
    25de:	00a7fb63          	bgeu	a5,a0,25f4 <__udivdi3+0x304>
    25e2:	979a                	add	a5,a5,t1
    25e4:	fff68713          	addi	a4,a3,-1
    25e8:	1e67e363          	bltu	a5,t1,27ce <__udivdi3+0x4de>
    25ec:	1ea7f163          	bgeu	a5,a0,27ce <__udivdi3+0x4de>
    25f0:	16f9                	addi	a3,a3,-2
    25f2:	979a                	add	a5,a5,t1
    25f4:	40a78733          	sub	a4,a5,a0
    25f8:	85a6                	mv	a1,s1
    25fa:	853a                	mv	a0,a4
    25fc:	ca36                	sw	a3,20(sp)
    25fe:	c81a                	sw	t1,16(sp)
    2600:	c43a                	sw	a4,8(sp)
    2602:	b9ffd0ef          	jal	ra,1a0 <__umodsi3>
    2606:	4722                	lw	a4,8(sp)
    2608:	c62a                	sw	a0,12(sp)
    260a:	85a6                	mv	a1,s1
    260c:	853a                	mv	a0,a4
    260e:	b67fd0ef          	jal	ra,174 <__udivsi3>
    2612:	85aa                	mv	a1,a0
    2614:	c42a                	sw	a0,8(sp)
    2616:	4502                	lw	a0,0(sp)
    2618:	b3dfd0ef          	jal	ra,154 <__mulsi3>
    261c:	47b2                	lw	a5,12(sp)
    261e:	8230                	lhu	a2,4(sp)
    2620:	4722                	lw	a4,8(sp)
    2622:	07c2                	slli	a5,a5,0x10
    2624:	8fd1                	or	a5,a5,a2
    2626:	4342                	lw	t1,16(sp)
    2628:	46d2                	lw	a3,20(sp)
    262a:	00a7fb63          	bgeu	a5,a0,2640 <__udivdi3+0x350>
    262e:	979a                	add	a5,a5,t1
    2630:	fff70613          	addi	a2,a4,-1
    2634:	1867e963          	bltu	a5,t1,27c6 <__udivdi3+0x4d6>
    2638:	18a7f763          	bgeu	a5,a0,27c6 <__udivdi3+0x4d6>
    263c:	1779                	addi	a4,a4,-2
    263e:	979a                	add	a5,a5,t1
    2640:	06c2                	slli	a3,a3,0x10
    2642:	8f89                	sub	a5,a5,a0
    2644:	8ed9                	or	a3,a3,a4
    2646:	bd11                	j	245a <__udivdi3+0x16a>
    2648:	00b65533          	srl	a0,a2,a1
    264c:	006696b3          	sll	a3,a3,t1
    2650:	8ec9                	or	a3,a3,a0
    2652:	00b753b3          	srl	t2,a4,a1
    2656:	cc3a                	sw	a4,24(sp)
    2658:	00661733          	sll	a4,a2,t1
    265c:	0106d413          	srli	s0,a3,0x10
    2660:	00b7d4b3          	srl	s1,a5,a1
    2664:	c43a                	sw	a4,8(sp)
    2666:	006797b3          	sll	a5,a5,t1
    266a:	01069713          	slli	a4,a3,0x10
    266e:	00f3e7b3          	or	a5,t2,a5
    2672:	8341                	srli	a4,a4,0x10
    2674:	85a2                	mv	a1,s0
    2676:	8526                	mv	a0,s1
    2678:	c03e                	sw	a5,0(sp)
    267a:	ca1a                	sw	t1,20(sp)
    267c:	c836                	sw	a3,16(sp)
    267e:	c23a                	sw	a4,4(sp)
    2680:	b21fd0ef          	jal	ra,1a0 <__umodsi3>
    2684:	c62a                	sw	a0,12(sp)
    2686:	85a2                	mv	a1,s0
    2688:	8526                	mv	a0,s1
    268a:	aebfd0ef          	jal	ra,174 <__udivsi3>
    268e:	85aa                	mv	a1,a0
    2690:	84aa                	mv	s1,a0
    2692:	4512                	lw	a0,4(sp)
    2694:	ac1fd0ef          	jal	ra,154 <__mulsi3>
    2698:	43b2                	lw	t2,12(sp)
    269a:	4782                	lw	a5,0(sp)
    269c:	46c2                	lw	a3,16(sp)
    269e:	03c2                	slli	t2,t2,0x10
    26a0:	0107d613          	srli	a2,a5,0x10
    26a4:	00c3e633          	or	a2,t2,a2
    26a8:	4352                	lw	t1,20(sp)
    26aa:	4762                	lw	a4,24(sp)
    26ac:	00a67b63          	bgeu	a2,a0,26c2 <__udivdi3+0x3d2>
    26b0:	9636                	add	a2,a2,a3
    26b2:	fff48593          	addi	a1,s1,-1
    26b6:	10d66a63          	bltu	a2,a3,27ca <__udivdi3+0x4da>
    26ba:	10a67863          	bgeu	a2,a0,27ca <__udivdi3+0x4da>
    26be:	14f9                	addi	s1,s1,-2
    26c0:	9636                	add	a2,a2,a3
    26c2:	8e09                	sub	a2,a2,a0
    26c4:	85a2                	mv	a1,s0
    26c6:	8532                	mv	a0,a2
    26c8:	cc3a                	sw	a4,24(sp)
    26ca:	ca1a                	sw	t1,20(sp)
    26cc:	ce36                	sw	a3,28(sp)
    26ce:	c832                	sw	a2,16(sp)
    26d0:	ad1fd0ef          	jal	ra,1a0 <__umodsi3>
    26d4:	4642                	lw	a2,16(sp)
    26d6:	85a2                	mv	a1,s0
    26d8:	c62a                	sw	a0,12(sp)
    26da:	8532                	mv	a0,a2
    26dc:	a99fd0ef          	jal	ra,174 <__udivsi3>
    26e0:	85aa                	mv	a1,a0
    26e2:	842a                	mv	s0,a0
    26e4:	4512                	lw	a0,4(sp)
    26e6:	a6ffd0ef          	jal	ra,154 <__mulsi3>
    26ea:	42b2                	lw	t0,12(sp)
    26ec:	8030                	lhu	a2,0(sp)
    26ee:	4352                	lw	t1,20(sp)
    26f0:	02c2                	slli	t0,t0,0x10
    26f2:	00c2e633          	or	a2,t0,a2
    26f6:	4762                	lw	a4,24(sp)
    26f8:	00a67c63          	bgeu	a2,a0,2710 <__udivdi3+0x420>
    26fc:	46f2                	lw	a3,28(sp)
    26fe:	fff40593          	addi	a1,s0,-1
    2702:	9636                	add	a2,a2,a3
    2704:	0ad66f63          	bltu	a2,a3,27c2 <__udivdi3+0x4d2>
    2708:	0aa67d63          	bgeu	a2,a0,27c2 <__udivdi3+0x4d2>
    270c:	1479                	addi	s0,s0,-2
    270e:	9636                	add	a2,a2,a3
    2710:	66c1                	lui	a3,0x10
    2712:	fff68293          	addi	t0,a3,-1 # ffff <_data_lma+0xcc47>
    2716:	46a2                	lw	a3,8(sp)
    2718:	01049793          	slli	a5,s1,0x10
    271c:	8fc1                	or	a5,a5,s0
    271e:	0057f433          	and	s0,a5,t0
    2722:	8e09                	sub	a2,a2,a0
    2724:	0056f2b3          	and	t0,a3,t0
    2728:	c232                	sw	a2,4(sp)
    272a:	0107d393          	srli	t2,a5,0x10
    272e:	0106d493          	srli	s1,a3,0x10
    2732:	8522                	mv	a0,s0
    2734:	8596                	mv	a1,t0
    2736:	a1ffd0ef          	jal	ra,154 <__mulsi3>
    273a:	c02a                	sw	a0,0(sp)
    273c:	85a6                	mv	a1,s1
    273e:	8522                	mv	a0,s0
    2740:	a15fd0ef          	jal	ra,154 <__mulsi3>
    2744:	842a                	mv	s0,a0
    2746:	8596                	mv	a1,t0
    2748:	851e                	mv	a0,t2
    274a:	a0bfd0ef          	jal	ra,154 <__mulsi3>
    274e:	82aa                	mv	t0,a0
    2750:	85a6                	mv	a1,s1
    2752:	851e                	mv	a0,t2
    2754:	a01fd0ef          	jal	ra,154 <__mulsi3>
    2758:	4682                	lw	a3,0(sp)
    275a:	9416                	add	s0,s0,t0
    275c:	82c1                	srli	a3,a3,0x10
    275e:	9436                	add	s0,s0,a3
    2760:	00547463          	bgeu	s0,t0,2768 <__udivdi3+0x478>
    2764:	66c1                	lui	a3,0x10
    2766:	9536                	add	a0,a0,a3
    2768:	01045693          	srli	a3,s0,0x10
    276c:	9536                	add	a0,a0,a3
    276e:	4692                	lw	a3,4(sp)
    2770:	02a6e363          	bltu	a3,a0,2796 <__udivdi3+0x4a6>
    2774:	00a68563          	beq	a3,a0,277e <__udivdi3+0x48e>
    2778:	853e                	mv	a0,a5
    277a:	4681                	li	a3,0
    277c:	b3e9                	j	2546 <__udivdi3+0x256>
    277e:	6641                	lui	a2,0x10
    2780:	4582                	lw	a1,0(sp)
    2782:	167d                	addi	a2,a2,-1
    2784:	00c476b3          	and	a3,s0,a2
    2788:	06c2                	slli	a3,a3,0x10
    278a:	8e6d                	and	a2,a2,a1
    278c:	00671733          	sll	a4,a4,t1
    2790:	96b2                	add	a3,a3,a2
    2792:	fed773e3          	bgeu	a4,a3,2778 <__udivdi3+0x488>
    2796:	fff78513          	addi	a0,a5,-1
    279a:	4681                	li	a3,0
    279c:	b36d                	j	2546 <__udivdi3+0x256>
    279e:	0106d593          	srli	a1,a3,0x10
    27a2:	4341                	li	t1,16
    27a4:	bb95                	j	2518 <__udivdi3+0x228>
    27a6:	01065593          	srli	a1,a2,0x10
    27aa:	44c1                	li	s1,16
    27ac:	be9d                	j	2322 <__udivdi3+0x32>
    27ae:	01035613          	srli	a2,t1,0x10
    27b2:	44c1                	li	s1,16
    27b4:	b9a5                	j	242c <__udivdi3+0x13c>
    27b6:	4681                	li	a3,0
    27b8:	4505                	li	a0,1
    27ba:	b371                	j	2546 <__udivdi3+0x256>
    27bc:	85b6                	mv	a1,a3
    27be:	4301                	li	t1,0
    27c0:	bba1                	j	2518 <__udivdi3+0x228>
    27c2:	842e                	mv	s0,a1
    27c4:	b7b1                	j	2710 <__udivdi3+0x420>
    27c6:	8732                	mv	a4,a2
    27c8:	bda5                	j	2640 <__udivdi3+0x350>
    27ca:	84ae                	mv	s1,a1
    27cc:	bddd                	j	26c2 <__udivdi3+0x3d2>
    27ce:	86ba                	mv	a3,a4
    27d0:	b515                	j	25f4 <__udivdi3+0x304>
    27d2:	16f9                	addi	a3,a3,-2
    27d4:	979a                	add	a5,a5,t1
    27d6:	b6e9                	j	23a0 <__udivdi3+0xb0>
    27d8:	ffe60713          	addi	a4,a2,-2 # fffe <_data_lma+0xcc46>
    27dc:	c23a                	sw	a4,4(sp)
    27de:	979a                	add	a5,a5,t1
    27e0:	b1c1                	j	24a0 <__udivdi3+0x1b0>

000027e2 <malloc>:
    27e2:	1fffe797          	auipc	a5,0x1fffe
    27e6:	98678793          	addi	a5,a5,-1658 # 20000168 <_impure_ptr>
    27ea:	85aa                	mv	a1,a0
    27ec:	4388                	lw	a0,0(a5)
    27ee:	a009                	j	27f0 <_malloc_r>

000027f0 <_malloc_r>:
    27f0:	1141                	addi	sp,sp,-16
    27f2:	c226                	sw	s1,4(sp)
    27f4:	00358493          	addi	s1,a1,3 # 1000003 <_data_lma+0xffcc4b>
    27f8:	98f1                	andi	s1,s1,-4
    27fa:	c606                	sw	ra,12(sp)
    27fc:	c422                	sw	s0,8(sp)
    27fe:	04a1                	addi	s1,s1,8
    2800:	47b1                	li	a5,12
    2802:	04f4f563          	bgeu	s1,a5,284c <_malloc_r+0x5c>
    2806:	44b1                	li	s1,12
    2808:	04b4e463          	bltu	s1,a1,2850 <_malloc_r+0x60>
    280c:	c02a                	sw	a0,0(sp)
    280e:	28f9                	jal	28ec <__malloc_lock>
    2810:	80818713          	addi	a4,gp,-2040 # 20000170 <_edata>
    2814:	4314                	lw	a3,0(a4)
    2816:	4782                	lw	a5,0(sp)
    2818:	8436                	mv	s0,a3
    281a:	e039                	bnez	s0,2860 <_malloc_r+0x70>
    281c:	80c18713          	addi	a4,gp,-2036 # 20000174 <__malloc_sbrk_start>
    2820:	4318                	lw	a4,0(a4)
    2822:	eb01                	bnez	a4,2832 <_malloc_r+0x42>
    2824:	853e                	mv	a0,a5
    2826:	4581                	li	a1,0
    2828:	c03e                	sw	a5,0(sp)
    282a:	2869                	jal	28c4 <_sbrk_r>
    282c:	80a1a623          	sw	a0,-2036(gp) # 20000174 <__malloc_sbrk_start>
    2830:	4782                	lw	a5,0(sp)
    2832:	853e                	mv	a0,a5
    2834:	85a6                	mv	a1,s1
    2836:	c03e                	sw	a5,0(sp)
    2838:	2071                	jal	28c4 <_sbrk_r>
    283a:	577d                	li	a4,-1
    283c:	4782                	lw	a5,0(sp)
    283e:	06e51463          	bne	a0,a4,28a6 <_malloc_r+0xb6>
    2842:	4731                	li	a4,12
    2844:	c398                	sw	a4,0(a5)
    2846:	853e                	mv	a0,a5
    2848:	205d                	jal	28ee <__malloc_unlock>
    284a:	a029                	j	2854 <_malloc_r+0x64>
    284c:	fa04dee3          	bgez	s1,2808 <_malloc_r+0x18>
    2850:	47b1                	li	a5,12
    2852:	c11c                	sw	a5,0(a0)
    2854:	4501                	li	a0,0
    2856:	40b2                	lw	ra,12(sp)
    2858:	4422                	lw	s0,8(sp)
    285a:	4492                	lw	s1,4(sp)
    285c:	0141                	addi	sp,sp,16
    285e:	8082                	ret
    2860:	4018                	lw	a4,0(s0)
    2862:	8f05                	sub	a4,a4,s1
    2864:	02074e63          	bltz	a4,28a0 <_malloc_r+0xb0>
    2868:	462d                	li	a2,11
    286a:	00e67663          	bgeu	a2,a4,2876 <_malloc_r+0x86>
    286e:	c018                	sw	a4,0(s0)
    2870:	943a                	add	s0,s0,a4
    2872:	c004                	sw	s1,0(s0)
    2874:	a031                	j	2880 <_malloc_r+0x90>
    2876:	4058                	lw	a4,4(s0)
    2878:	02869263          	bne	a3,s0,289c <_malloc_r+0xac>
    287c:	80e1a423          	sw	a4,-2040(gp) # 20000170 <_edata>
    2880:	853e                	mv	a0,a5
    2882:	20b5                	jal	28ee <__malloc_unlock>
    2884:	00b40513          	addi	a0,s0,11
    2888:	00440713          	addi	a4,s0,4
    288c:	9961                	andi	a0,a0,-8
    288e:	40e507b3          	sub	a5,a0,a4
    2892:	d3f1                	beqz	a5,2856 <_malloc_r+0x66>
    2894:	943e                	add	s0,s0,a5
    2896:	8f09                	sub	a4,a4,a0
    2898:	c018                	sw	a4,0(s0)
    289a:	bf75                	j	2856 <_malloc_r+0x66>
    289c:	c2d8                	sw	a4,4(a3)
    289e:	b7cd                	j	2880 <_malloc_r+0x90>
    28a0:	86a2                	mv	a3,s0
    28a2:	4040                	lw	s0,4(s0)
    28a4:	bf9d                	j	281a <_malloc_r+0x2a>
    28a6:	00350413          	addi	s0,a0,3
    28aa:	9871                	andi	s0,s0,-4
    28ac:	fc8503e3          	beq	a0,s0,2872 <_malloc_r+0x82>
    28b0:	40a405b3          	sub	a1,s0,a0
    28b4:	853e                	mv	a0,a5
    28b6:	c03e                	sw	a5,0(sp)
    28b8:	2031                	jal	28c4 <_sbrk_r>
    28ba:	577d                	li	a4,-1
    28bc:	4782                	lw	a5,0(sp)
    28be:	fae51ae3          	bne	a0,a4,2872 <_malloc_r+0x82>
    28c2:	b741                	j	2842 <_malloc_r+0x52>

000028c4 <_sbrk_r>:
    28c4:	1151                	addi	sp,sp,-12
    28c6:	c222                	sw	s0,4(sp)
    28c8:	842a                	mv	s0,a0
    28ca:	852e                	mv	a0,a1
    28cc:	8001aa23          	sw	zero,-2028(gp) # 2000017c <errno>
    28d0:	c406                	sw	ra,8(sp)
    28d2:	2839                	jal	28f0 <_sbrk>
    28d4:	57fd                	li	a5,-1
    28d6:	00f51763          	bne	a0,a5,28e4 <_sbrk_r+0x20>
    28da:	81418793          	addi	a5,gp,-2028 # 2000017c <errno>
    28de:	439c                	lw	a5,0(a5)
    28e0:	c391                	beqz	a5,28e4 <_sbrk_r+0x20>
    28e2:	c01c                	sw	a5,0(s0)
    28e4:	40a2                	lw	ra,8(sp)
    28e6:	4412                	lw	s0,4(sp)
    28e8:	0131                	addi	sp,sp,12
    28ea:	8082                	ret

000028ec <__malloc_lock>:
    28ec:	8082                	ret

000028ee <__malloc_unlock>:
    28ee:	8082                	ret

000028f0 <_sbrk>:
    28f0:	81018793          	addi	a5,gp,-2032 # 20000178 <heap_end.1518>
    28f4:	439c                	lw	a5,0(a5)
    28f6:	c791                	beqz	a5,2902 <_sbrk+0x12>
    28f8:	953e                	add	a0,a0,a5
    28fa:	80a1a823          	sw	a0,-2032(gp) # 20000178 <heap_end.1518>
    28fe:	853e                	mv	a0,a5
    2900:	8082                	ret
    2902:	98018793          	addi	a5,gp,-1664 # 200002e8 <_ebss>
    2906:	953e                	add	a0,a0,a5
    2908:	80a1a823          	sw	a0,-2032(gp) # 20000178 <heap_end.1518>
    290c:	853e                	mv	a0,a5
    290e:	8082                	ret

00002910 <A>:
    2910:	0000 0101 0101 0000 0100 0001 0100 0001     ................
    2920:	0101 0000 0000 0101 0101 0000 0000 0101     ................
    2930:	0101 0101 0101 0101 0101 0000 0000 0101     ................
    2940:	0101 0000 0000 0101 0101 0000 0000 0101     ................

00002950 <B>:
    2950:	0101 0101 0101 0000 0101 0000 0100 0001     ................
    2960:	0101 0000 0100 0001 0101 0101 0101 0000     ................
    2970:	0101 0000 0100 0001 0101 0000 0100 0001     ................
    2980:	0101 0000 0100 0001 0101 0101 0101 0000     ................

00002990 <C>:
    2990:	0000 0101 0101 0000 0100 0001 0100 0001     ................
    29a0:	0101 0000 0000 0000 0101 0000 0000 0000     ................
    29b0:	0101 0000 0000 0000 0101 0000 0000 0000     ................
    29c0:	0100 0001 0100 0001 0000 0101 0101 0000     ................

000029d0 <D>:
    29d0:	0101 0101 0001 0000 0101 0000 0101 0000     ................
    29e0:	0101 0000 0100 0001 0101 0000 0100 0001     ................
    29f0:	0101 0000 0100 0001 0101 0000 0100 0001     ................
    2a00:	0101 0000 0101 0000 0101 0101 0001 0000     ................

00002a10 <E>:
    2a10:	0101 0101 0101 0101 0101 0000 0000 0000     ................
    2a20:	0101 0000 0000 0000 0101 0101 0101 0000     ................
    2a30:	0101 0000 0000 0000 0101 0000 0000 0000     ................
    2a40:	0101 0000 0000 0000 0101 0101 0101 0101     ................

00002a50 <F>:
    2a50:	0101 0101 0101 0101 0101 0000 0000 0000     ................
    2a60:	0101 0000 0000 0000 0101 0101 0101 0000     ................
    2a70:	0101 0000 0000 0000 0101 0000 0000 0000     ................
    2a80:	0101 0000 0000 0000 0101 0000 0000 0000     ................

00002a90 <G>:
    2a90:	0000 0101 0101 0000 0100 0001 0100 0001     ................
    2aa0:	0101 0000 0000 0000 0101 0000 0000 0000     ................
    2ab0:	0101 0000 0101 0101 0101 0000 0100 0001     ................
    2ac0:	0100 0001 0100 0001 0000 0101 0101 0000     ................

00002ad0 <H>:
    2ad0:	0101 0000 0000 0101 0101 0000 0000 0101     ................
    2ae0:	0101 0000 0000 0101 0101 0101 0101 0101     ................
    2af0:	0101 0000 0000 0101 0101 0000 0000 0101     ................
    2b00:	0101 0000 0000 0101 0101 0000 0000 0101     ................

00002b10 <I>:
    2b10:	0100 0101 0101 0001 0000 0100 0001 0000     ................
    2b20:	0000 0100 0001 0000 0000 0100 0001 0000     ................
    2b30:	0000 0100 0001 0000 0000 0100 0001 0000     ................
    2b40:	0000 0100 0001 0000 0100 0101 0101 0001     ................

00002b50 <J>:
    2b50:	0000 0000 0100 0001 0000 0000 0100 0001     ................
    2b60:	0000 0000 0100 0001 0000 0000 0100 0001     ................
    2b70:	0000 0000 0100 0001 0101 0000 0100 0001     ................
    2b80:	0101 0000 0100 0001 0100 0101 0101 0000     ................

00002b90 <K>:
    2b90:	0101 0000 0100 0001 0101 0000 0101 0000     ................
    2ba0:	0101 0100 0001 0000 0101 0101 0000 0000     ................
    2bb0:	0101 0101 0000 0000 0101 0100 0001 0000     ................
    2bc0:	0101 0000 0101 0000 0101 0000 0100 0001     ................

00002bd0 <L>:
    2bd0:	0101 0000 0000 0000 0101 0000 0000 0000     ................
    2be0:	0101 0000 0000 0000 0101 0000 0000 0000     ................
    2bf0:	0101 0000 0000 0000 0101 0000 0000 0000     ................
    2c00:	0101 0000 0000 0000 0101 0101 0101 0101     ................

00002c10 <M>:
    2c10:	0101 0000 0000 0101 0101 0001 0100 0101     ................
    2c20:	0101 0101 0101 0101 0101 0100 0001 0101     ................
    2c30:	0101 0000 0000 0101 0101 0000 0000 0101     ................
    2c40:	0101 0000 0000 0101 0101 0000 0000 0101     ................

00002c50 <N>:
    2c50:	0101 0000 0000 0101 0101 0001 0000 0101     ................
    2c60:	0101 0101 0000 0101 0101 0100 0001 0101     ................
    2c70:	0101 0000 0101 0101 0101 0000 0100 0101     ................
    2c80:	0101 0000 0000 0101 0101 0000 0000 0101     ................

00002c90 <O>:
    2c90:	0000 0101 0101 0000 0100 0001 0100 0001     ................
    2ca0:	0101 0000 0000 0101 0101 0000 0000 0101     ................
    2cb0:	0101 0000 0000 0101 0101 0000 0000 0101     ................
    2cc0:	0100 0001 0100 0001 0000 0101 0101 0000     ................

00002cd0 <P>:
    2cd0:	0101 0101 0101 0000 0101 0000 0100 0001     ................
    2ce0:	0101 0000 0100 0001 0101 0101 0101 0000     ................
    2cf0:	0101 0000 0000 0000 0101 0000 0000 0000     ................
    2d00:	0101 0000 0000 0000 0101 0000 0000 0000     ................

00002d10 <Q>:
    2d10:	0000 0101 0101 0000 0100 0001 0100 0001     ................
    2d20:	0101 0000 0000 0101 0101 0000 0000 0101     ................
    2d30:	0101 0000 0001 0101 0101 0000 0101 0101     ................
    2d40:	0100 0001 0100 0001 0000 0101 0101 0101     ................

00002d50 <R>:
    2d50:	0101 0101 0101 0000 0101 0000 0100 0001     ................
    2d60:	0101 0000 0100 0001 0101 0101 0101 0000     ................
    2d70:	0101 0100 0001 0000 0101 0000 0101 0000     ................
    2d80:	0101 0000 0100 0001 0101 0000 0000 0101     ................

00002d90 <S>:
    2d90:	0000 0101 0101 0000 0100 0001 0100 0001     ................
    2da0:	0101 0000 0000 0000 0100 0101 0101 0000     ................
    2db0:	0000 0000 0100 0001 0000 0000 0000 0101     ................
    2dc0:	0100 0001 0100 0001 0000 0101 0101 0000     ................

00002dd0 <T>:
    2dd0:	0101 0101 0101 0101 0000 0100 0001 0000     ................
    2de0:	0000 0100 0001 0000 0000 0100 0001 0000     ................
    2df0:	0000 0100 0001 0000 0000 0100 0001 0000     ................
    2e00:	0000 0100 0001 0000 0000 0100 0001 0000     ................

00002e10 <U>:
    2e10:	0101 0000 0000 0101 0101 0000 0000 0101     ................
    2e20:	0101 0000 0000 0101 0101 0000 0000 0101     ................
    2e30:	0101 0000 0000 0101 0101 0000 0000 0101     ................
    2e40:	0100 0001 0100 0001 0000 0101 0101 0000     ................

00002e50 <V>:
    2e50:	0101 0000 0000 0101 0101 0000 0000 0101     ................
    2e60:	0101 0000 0000 0101 0101 0000 0000 0101     ................
    2e70:	0100 0001 0100 0001 0000 0101 0101 0000     ................
    2e80:	0000 0100 0001 0000 0000 0000 0000 0000     ................

00002e90 <W>:
    2e90:	0101 0000 0000 0101 0101 0000 0000 0101     ................
    2ea0:	0101 0000 0000 0101 0101 0100 0001 0101     ................
    2eb0:	0101 0101 0101 0101 0101 0001 0100 0101     ................
    2ec0:	0101 0000 0000 0101 0101 0000 0000 0101     ................

00002ed0 <X>:
    2ed0:	0101 0000 0000 0101 0100 0001 0100 0001     ................
    2ee0:	0000 0101 0101 0000 0000 0100 0001 0000     ................
    2ef0:	0000 0100 0001 0000 0000 0101 0101 0000     ................
    2f00:	0100 0001 0100 0001 0101 0000 0000 0101     ................

00002f10 <Y>:
    2f10:	0101 0000 0000 0101 0100 0001 0100 0001     ................
    2f20:	0000 0101 0101 0000 0000 0100 0001 0000     ................
    2f30:	0000 0100 0001 0000 0000 0100 0001 0000     ................
    2f40:	0000 0100 0001 0000 0000 0100 0001 0000     ................

00002f50 <Z>:
    2f50:	0101 0101 0101 0101 0000 0000 0100 0001     ................
    2f60:	0000 0000 0101 0000 0000 0100 0001 0000     ................
    2f70:	0000 0101 0000 0000 0100 0001 0000 0000     ................
    2f80:	0101 0000 0000 0000 0101 0101 0101 0101     ................

00002f90 <font_0>:
    2f90:	0101 0101 0100 0001 0101 0100 0101 0001     ................

00002fa0 <font_1>:
    2fa0:	0101 0000 0001 0100 0000 0001 0101 0001     ................

00002fb0 <font_2>:
    2fb0:	0101 0001 0100 0101 0101 0000 0101 0001     ................

00002fc0 <font_3>:
    2fc0:	0101 0001 0100 0101 0001 0100 0101 0001     ................

00002fd0 <font_4>:
    2fd0:	0001 0101 0100 0101 0001 0100 0000 0001     ................

00002fe0 <font_5>:
    2fe0:	0101 0101 0000 0101 0001 0100 0101 0001     ................

00002ff0 <font_6>:
    2ff0:	0101 0101 0000 0101 0101 0100 0101 0001     ................

00003000 <font_7>:
    3000:	0101 0001 0100 0000 0001 0100 0000 0001     ................

00003010 <font_8>:
    3010:	0101 0101 0100 0101 0101 0100 0101 0001     ................

00003020 <font_9>:
    3020:	0101 0101 0100 0101 0001 0100 0101 0001     ................

00003030 <font_D>:
    3030:	0101 0100 0100 0001 0101 0100 0101 0000     ................

00003040 <font_X>:
    3040:	0001 0101 0100 0100 0100 0100 0001 0001     ................

00003050 <font_chars>:
    3050:	0020 0000 0000 0000 4100 3c18 7e66 6666      ........A.<f~ff
    3060:	0066 7c42 6666 667c 7c66 4300 663c 6060     f.B|ff|ff|.C<f``
    3070:	6660 003c 7844 666c 6666 786c 4500 607e     `f<.Dxlffflx.E~`
    3080:	7860 6060 007e 7e46 6060 6078 6060 4700     `x``~.F~``x```.G
    3090:	663c 6e60 6666 003c 6648 6666 667e 6666     <f`nff<.Hfff~fff
    30a0:	4900 183c 1818 1818 003c 1e4a 0c0c 0c0c     .I<.....<.J.....
    30b0:	386c 4b00 6c66 7078 6c78 0066 604c 6060     l8.Kflxpxlf.L```
    30c0:	6060 7e60 4d00 7763 6b7f 6363 0063 664e     ```~.Mcw.kccc.Nf
    30d0:	7e76 6e7e 6666 4f00 663c 6666 6666 003c     v~~nff.O<fffff<.
    30e0:	7c50 6666 607c 6060 5100 663c 6666 3c66     P|ff|```.Q<ffff<
    30f0:	000e 7c52 6666 787c 666c 5300 663c 3c60     ..R|ff|xlf.S<f`<
    3100:	6606 003c 7e54 1818 1818 1818 5500 6666     .f<.T~.......Uff
    3110:	6666 6666 003c 6656 6666 6666 183c 5700     ffff<.Vfffff<..W
    3120:	6363 6b63 777f 0063 6658 3c66 3c18 6666     ccck.wc.Xff<.<ff
    3130:	5900 6666 3c66 1818 0018 7e5a 0c06 3018     .Yfff<....Z~...0
    3140:	7e60 7f00 ffff ffff ffff ffff 4c50 5941     `~..........PLAY
    3150:	5245 0000 7453 726f 6761 2065 6e69 7469     ER..Storage init
    3160:	6169 696c 657a 0064 7453 726f 6761 2065     ialized.Storage 
    3170:	6c61 6572 6461 2079 6e69 7469 6169 696c     already initiali
    3180:	657a 0064 4c49 3030 3030 3130 0000 0000     zed.IL000001....
    3190:	6f4c 6461 6465 7520 6573 2072 6f63 6e75     Loaded user coun
    31a0:	3a74 2520 0a64 0000 6f4c 6461 6465 6e20     t: %d...Loaded n
    31b0:	6d61 2065 2527 2773 6620 726f 7520 6573     ame '%s' for use
    31c0:	2072 6425 000a 0000 6f4c 6461 6465 2520     r %d....Loaded %
    31d0:	2064 6373 726f 7365 6620 726f 7520 6573     d scores for use
    31e0:	2072 6425 000a 0000 654c 7374 7320 6174     r %d....Lets sta
    31f0:	7472 6420 6265 6775 0000 0000 4548 4c4c     rt debug....HELL
    3200:	004f 0000 7543 7272 6e65 2074 6c70 7961     O...Current play
    3210:	7265 203a 7325 000a 6c41 206c 6373 726f     er: %s..All scor
    3220:	7365 6620 726f 6120 6c6c 7520 6573 7372     es for all users
    3230:	7220 7365 7465 0000 7453 726f 6761 2065      reset..Storage 
    3240:	6572 6573 0074 0000 7355 7265 2520 3a64     reset...User %d:
    3250:	5320 6f63 6572 2520 2064 6173 6576 2064      Score %d saved 
    3260:	6f74 7320 6f6c 2074 6425 6120 2074 6461     to slot %d at ad
    3270:	7264 2520 0a64 0000 7355 7265 6320 756f     dr %d...User cou
    3280:	746e 2520 2064 6173 6576 0a64 0000 0000     nt %d saved.....
    3290:	614e 656d 2720 7325 2027 6173 6576 2064     Name '%s' saved 
    32a0:	6f66 2072 7375 7265 2520 2064 7461 6120     for user %d at a
    32b0:	6464 2072 6425 000a                         ddr %d..

000032b8 <__clz_tab>:
    32b8:	0100 0202 0303 0303 0404 0404 0404 0404     ................
    32c8:	0505 0505 0505 0505 0505 0505 0505 0505     ................
    32d8:	0606 0606 0606 0606 0606 0606 0606 0606     ................
    32e8:	0606 0606 0606 0606 0606 0606 0606 0606     ................
    32f8:	0707 0707 0707 0707 0707 0707 0707 0707     ................
    3308:	0707 0707 0707 0707 0707 0707 0707 0707     ................
    3318:	0707 0707 0707 0707 0707 0707 0707 0707     ................
    3328:	0707 0707 0707 0707 0707 0707 0707 0707     ................
    3338:	0808 0808 0808 0808 0808 0808 0808 0808     ................
    3348:	0808 0808 0808 0808 0808 0808 0808 0808     ................
    3358:	0808 0808 0808 0808 0808 0808 0808 0808     ................
    3368:	0808 0808 0808 0808 0808 0808 0808 0808     ................
    3378:	0808 0808 0808 0808 0808 0808 0808 0808     ................
    3388:	0808 0808 0808 0808 0808 0808 0808 0808     ................
    3398:	0808 0808 0808 0808 0808 0808 0808 0808     ................
    33a8:	0808 0808 0808 0808 0808 0808 0808 0808     ................
